LX51 LINKER/LOCATER V4.66.97.0                                                          01/21/2021  22:11:49  PAGE 1


LX51 LINKER/LOCATER V4.66.97.0, INVOKED BY:
C:\SILICONLABS\SIMPLICITYSTUDIO\V4\DEVELOPER\TOOLCHAINS\KEIL_8051\9.60\BIN\LX51.EXE ./lib/efm8_assert/assert.OBJ, ./lib/
>> efm8_usb/src/efm8_usbd.OBJ, ./lib/efm8_usb/src/efm8_usbdch9.OBJ, ./lib/efm8_usb/src/efm8_usbdep.OBJ, ./lib/efm8_usb/s
>> rc/efm8_usbdint.OBJ, ./lib/efm8ub2/peripheralDrivers/src/usb_0.OBJ, ./src/InitDevice.OBJ, ./src/Interrupts.OBJ, ./src
>> /SILABS_STARTUP.OBJ, ./src/callback.OBJ, ./src/descriptors.OBJ, ./src/idle.OBJ, ./src/main.OBJ TO EFM8UB2_HID_VENDORD
>> EFINED_GRASSVALLEYSMSP32.OMF.CRBUILD REMOVEUNUSED PRINT (.\EFM8UB2_HID_VendorDefined_GrassValleySmsP32.m51) PAGEWIDTH
>>  (120) PAGELENGTH (65) CLASSES (ECODE (C:0X0-C:0XFBFE), HCONST (C:0X0-C:0XFBFE), XDATA (X:0X0-X:0XFFF), HDATA (X:0X0-
>> X:0XFFF))


CPU MODE:     8051 MODE
MEMORY MODEL: SMALL


INPUT MODULES INCLUDED:
  ./lib/efm8_assert/assert.OBJ (ASSERT)
         COMMENT TYPE 0: C51 V9.60.0.0
  ./lib/efm8_usb/src/efm8_usbd.OBJ (EFM8_USBD)
         COMMENT TYPE 0: C51 V9.60.0.0
  ./lib/efm8_usb/src/efm8_usbdch9.OBJ (EFM8_USBDCH9)
         COMMENT TYPE 0: C51 V9.60.0.0
  ./lib/efm8_usb/src/efm8_usbdep.OBJ (EFM8_USBDEP)
         COMMENT TYPE 0: C51 V9.60.0.0
  ./lib/efm8_usb/src/efm8_usbdint.OBJ (EFM8_USBDINT)
         COMMENT TYPE 0: C51 V9.60.0.0
  ./lib/efm8ub2/peripheralDrivers/src/usb_0.OBJ (USB_0)
         COMMENT TYPE 0: C51 V9.60.0.0
  ./src/InitDevice.OBJ (INITDEVICE)
         COMMENT TYPE 0: C51 V9.60.0.0
  ./src/Interrupts.OBJ (INTERRUPTS)
         COMMENT TYPE 0: C51 V9.60.0.0
  ./src/SILABS_STARTUP.OBJ (?C_STARTUP)
         COMMENT TYPE 0: AX51 V3.15.3.0
  ./src/callback.OBJ (CALLBACK)
         COMMENT TYPE 0: C51 V9.60.0.0
  ./src/descriptors.OBJ (DESCRIPTORS)
         COMMENT TYPE 0: C51 V9.60.0.0
  ./src/idle.OBJ (IDLE)
         COMMENT TYPE 0: C51 V9.60.0.0
  ./src/main.OBJ (MAIN)
         COMMENT TYPE 0: C51 V9.60.0.0
  C:\SILICONLABS\SIMPLICITYSTUDIO\V4\DEVELOPER\TOOLCHAINS\KEIL_8051\9.60\LIB\C51S.LIB (?C_INIT)
         COMMENT TYPE 1: A51 / ASM51 Assembler
  C:\SILICONLABS\SIMPLICITYSTUDIO\V4\DEVELOPER\TOOLCHAINS\KEIL_8051\9.60\LIB\C51S.LIB (?C?CLDPTR)
         COMMENT TYPE 1: A51 / ASM51 Assembler
  C:\SILICONLABS\SIMPLICITYSTUDIO\V4\DEVELOPER\TOOLCHAINS\KEIL_8051\9.60\LIB\C51S.LIB (?C?CLDOPTR)
         COMMENT TYPE 1: A51 / ASM51 Assembler
  C:\SILICONLABS\SIMPLICITYSTUDIO\V4\DEVELOPER\TOOLCHAINS\KEIL_8051\9.60\LIB\C51S.LIB (?C?UIDIV)
         COMMENT TYPE 1: A51 / ASM51 Assembler
  C:\SILICONLABS\SIMPLICITYSTUDIO\V4\DEVELOPER\TOOLCHAINS\KEIL_8051\9.60\LIB\C51S.LIB (?C?IILDX)
         COMMENT TYPE 1: A51 / ASM51 Assembler
  C:\SILICONLABS\SIMPLICITYSTUDIO\V4\DEVELOPER\TOOLCHAINS\KEIL_8051\9.60\LIB\C51S.LIB (?C?ILDOPTR)
         COMMENT TYPE 1: A51 / ASM51 Assembler
  C:\SILICONLABS\SIMPLICITYSTUDIO\V4\DEVELOPER\TOOLCHAINS\KEIL_8051\9.60\LIB\C51S.LIB (?C?PLDPTR)
         COMMENT TYPE 1: A51 / ASM51 Assembler
  C:\SILICONLABS\SIMPLICITYSTUDIO\V4\DEVELOPER\TOOLCHAINS\KEIL_8051\9.60\LIB\C51S.LIB (?C?PLDOPTR)
         COMMENT TYPE 1: A51 / ASM51 Assembler
  C:\SILICONLABS\SIMPLICITYSTUDIO\V4\DEVELOPER\TOOLCHAINS\KEIL_8051\9.60\LIB\C51S.LIB (?C?PLDIDATA)
         COMMENT TYPE 1: A51 / ASM51 Assembler
  C:\SILICONLABS\SIMPLICITYSTUDIO\V4\DEVELOPER\TOOLCHAINS\KEIL_8051\9.60\LIB\C51S.LIB (?C?PLDXDATA)
         COMMENT TYPE 1: A51 / ASM51 Assembler
  C:\SILICONLABS\SIMPLICITYSTUDIO\V4\DEVELOPER\TOOLCHAINS\KEIL_8051\9.60\LIB\C51S.LIB (?C?PLDPDATA)
         COMMENT TYPE 1: A51 / ASM51 Assembler
LX51 LINKER/LOCATER V4.66.97.0                                                        01/21/2021  22:11:49  PAGE 2


  C:\SILICONLABS\SIMPLICITYSTUDIO\V4\DEVELOPER\TOOLCHAINS\KEIL_8051\9.60\LIB\C51S.LIB (?C?PLDCODE)
         COMMENT TYPE 1: A51 / ASM51 Assembler


ACTIVE MEMORY CLASSES OF MODULE:  EFM8UB2_HID_VENDORDEFINED_GRASSVALLEYSMSP32.OMF.CRBUILD (ASSERT)

BASE        START       END         USED      MEMORY CLASS
==========================================================
C:000000H   C:000000H   C:00FBFEH             ECODE
C:000000H   C:000000H   C:00FBFEH             HCONST
X:000000H   X:000000H   X:000FFFH   000114H   XDATA
X:000000H   X:000000H   X:000FFFH             HDATA
C:000000H   C:000000H   C:00FFFFH   001E92H   CODE
I:000000H   I:000000H   I:00007FH   000035H   DATA
I:000020H.0 I:000020H.0 I:00002FH.7 000000H.4 BIT
I:000000H   I:000000H   I:0000FFH   00002CH   IDATA
C:000000H   C:000000H   C:00FFFFH   000130H   CONST


MEMORY MAP OF MODULE:  EFM8UB2_HID_VENDORDEFINED_GRASSVALLEYSMSP32.OMF.CRBUILD (ASSERT)


START     STOP      LENGTH    ALIGN  RELOC    MEMORY CLASS   SEGMENT NAME
=========================================================================

* * * * * * * * * * *   D A T A   M E M O R Y   * * * * * * * * * * * * *
000000H   000007H   000008H   ---    AT..     DATA           "REG BANK 0"
000008H   00000AH   000003H   BYTE   UNIT     DATA           ?DT?CALLBACK
00000BH   00000DH   000003H   BYTE   UNIT     DATA           ?DT?IDLE
00000EH   000010H   000003H   BYTE   UNIT     DATA           ?DT?MAIN
000011H   000012H   000002H   BYTE   UNIT     DATA           ?DT?EFM8_USBDCH9
000013H.0 00001FH.7 00000DH.0 ---    ---      **GAP**
000020H.0 000020H.3 000000H.4 BIT    UNIT     BIT            _BIT_GROUP_
000020H.4 000020H   000000H.4 ---    ---      **GAP**
000021H   000042H   000022H   BYTE   UNIT     DATA           _DATA_GROUP_
000043H   00006DH   00002BH   BYTE   UNIT     IDATA          ?ID?EFM8_USBD
00006EH   00006EH   000001H   BYTE   UNIT     IDATA          ?STACK

* * * * * * * * * * *   C O D E   M E M O R Y   * * * * * * * * * * * * *
000000H   000002H   000003H   ---    OFFS..   CODE           ?CO?SILABS_STARTUP?3
000003H   000029H   000027H   BYTE   UNIT     CODE           ?PR?USBD_ABORTALLTRANSFERS?EFM8_USBD
00002AH   00002AH   000001H   BYTE   UNIT     CODE           ?PR?FORCEMODULELOAD_USBINT?EFM8_USBDINT
00002BH   00002DH   000003H   BYTE   OFFS..   CODE           ?MAIN?0002B
00002EH   000042H   000015H   BYTE   UNIT     CODE           ?PR?SENDEP0STALL?EFM8_USBDINT
000043H   000045H   000003H   BYTE   OFFS..   CODE           ?EFM8_USBDINT?00043
000046H   00042DH   0003E8H   BYTE   UNIT     CODE           ?PR?MAIN?MAIN
00042EH   00058DH   000160H   BYTE   UNIT     CODE           ?C?LIB_CODE
00058EH   0006E8H   00015BH   BYTE   UNIT     CODE           ?PR?_USBD_SETUPCMDCB?CALLBACK
0006E9H   000817H   00012FH   BYTE   UNIT     CODE           ?PR?_USBD_SOFCB?CALLBACK
000818H   000934H   00011DH   BYTE   UNIT     CODE           ?PR?HANDLEUSBEP0TX?EFM8_USBDINT
000935H   000A44H   000110H   BYTE   UNIT     CODE           ?PR?GETDESCRIPTOR?EFM8_USBDCH9
000A45H   000B44H   000100H   BYTE   UNIT     CODE           ?PR?_SETDISPLAY?MAIN
000B45H   000C28H   0000E4H   BYTE   UNIT     CODE           ?PR?HANDLEUSBEP0INT?EFM8_USBDINT
000C29H   000CFBH   0000D3H   BYTE   UNIT     CODE           ?PR?HANDLEUSBOUT1INT?EFM8_USBDEP
000CFCH   000DC2H   0000C7H   BYTE   UNIT     CODE           ?PR?GETSTATUS?EFM8_USBDCH9
000DC3H   000E88H   0000C6H   BYTE   UNIT     CODE           ?PR?USBIRQHANDLER?EFM8_USBDINT
000E89H   000F4CH   0000C4H   BYTE   UNIT     CODE           ?PR?SETCONFIGURATION?EFM8_USBDCH9
000F4DH   001003H   0000B7H   BYTE   UNIT     CODE           ?PR?_USBD_WRITE?EFM8_USBD
001004H   0010B0H   0000ADH   BYTE   UNIT     CODE           ?PR?_USBD_INIT?EFM8_USBD
0010B1H   00115CH   0000ACH   BYTE   UNIT     CODE           ?PR?CLEARFEATURE?EFM8_USBDCH9
00115DH   001204H   0000A8H   BYTE   UNIT     CODE           ?PR?HANDLEUSBIN1INT?EFM8_USBDEP
001205H   0012A4H   0000A0H   BYTE   UNIT     CODE           ?PR?_USBD_XFERCOMPLETECB?CALLBACK
LX51 LINKER/LOCATER V4.66.97.0                                                        01/21/2021  22:11:49  PAGE 3


0012A5H   00133BH   000097H   BYTE   UNIT     CODE           ?PR?HANDLEUSBEP0RX?EFM8_USBDINT
00133CH   0013CFH   000094H   BYTE   UNIT     CODE           ?PR?SETFEATURE?EFM8_USBDCH9
0013D0H   00145EH   00008FH   BYTE   UNIT     CODE           ?C_C51STARTUP
00145FH   0014E5H   000087H   BYTE   UNIT     CODE           ?PR?_USBD_READ?EFM8_USBD
0014E6H   00156CH   000087H   BYTE   UNIT     CODE           ?PR?_USB_ACTIVATEEP?USB_0
00156DH   0015DAH   00006EH   BYTE   UNIT     CODE           ?PR?_USB_WRITEFIFO?EFM8_USBDEP
0015DBH   001643H   000069H   BYTE   UNIT     CODE           ?PR?SETADDRESS?EFM8_USBDCH9
001644H   0016AAH   000067H   BYTE   UNIT     CODE           ?PR?RUNGROUPEIGHTBLINKMODE?MAIN
0016ABH   001710H   000066H   BYTE   UNIT     CODE           ?PR?_SETLAMPS?MAIN
001711H   001773H   000063H   BYTE   UNIT     CODE           ?PR?_USBD_ABORTTRANSFER?EFM8_USBD
001774H   0017CCH   000059H   BYTE   UNIT     CODE           ?PR?USB_READFIFOSETUP?EFM8_USBDINT
0017CDH   001820H   000054H   BYTE   UNIT     CODE           ?PR?LFSR?MAIN
001821H   001873H   000053H   BYTE   UNIT     CODE           ?PR?USBDCH9_SETUPCMD?EFM8_USBDCH9
001874H   0018C2H   00004FH   BYTE   UNIT     CODE           ?PR?GETCONFIGURATION?EFM8_USBDCH9
0018C3H   00190DH   00004BH   BYTE   UNIT     CODE           ?PR?_USB_READFIFO?EFM8_USBDEP
00190EH   00194CH   00003FH   BYTE   UNIT     CODE           ?PR?GETINTERFACE?EFM8_USBDCH9
00194DH   00198BH   00003FH   BYTE   UNIT     CODE           ?PR?HANDLEUSBRESETINT?EFM8_USBDINT
00198CH   0019C6H   00003BH   BYTE   UNIT     CODE           ?PR?_USBD_DEVICESTATECHANGECB?CALLBACK
0019C7H   0019FEH   000038H   BYTE   UNIT     CODE           ?PR?_USBD_SETUSBSTATE?EFM8_USBD
0019FFH   001A36H   000038H   BYTE   UNIT     CODE           ?PR?SETINTERFACE?EFM8_USBDCH9
001A37H   001A6AH   000034H   BYTE   UNIT     CODE           ?PR?_USB_ABORTINEP?USB_0
001A6BH   001A9EH   000034H   BYTE   UNIT     CODE           ?PR?_USB_ABORTOUTEP?USB_0
001A9FH   001AD2H   000034H   BYTE   UNIT     CODE           ?PR?ENTER_DEFAULTMODE_FROM_RESET?INITDEVICE
001AD3H   001B05H   000033H   BYTE   UNIT     CODE           ?PR?_EP0_WRITE?EFM8_USBDCH9
001B06H   001B36H   000031H   BYTE   UNIT     CODE           ?PR?ENTERGROUPEIGHTBLINKMODE?MAIN
001B37H   001B5FH   000029H   BYTE   UNIT     CODE           ?PR?USBD_ACTIVATEALLEPS?EFM8_USBDCH9
001B60H   001B85H   000026H   BYTE   UNIT     CODE           ?PR?_USBD_EPISBUSY?EFM8_USBD
001B86H   001BA8H   000023H   BYTE   UNIT     CODE           ?PR?_USB_GETSHORTREGISTER?USB_0
001BA9H   001BC9H   000021H   BYTE   UNIT     CODE           ?PR?_USB_READFIFO_XDATA?EFM8_USBDEP
001BCAH   001BE8H   00001FH   BYTE   UNIT     CODE           ?PR?_USB_READFIFO_PDATA?EFM8_USBDEP
001BE9H   001C06H   00001EH   BYTE   UNIT     CODE           ?C_INITSEG
001C07H   001C24H   00001EH   BYTE   UNIT     CODE           ?PR?IDLETIMERSTART?IDLE
001C25H   001C42H   00001EH   BYTE   UNIT     CODE           ?PR?CLEARLAMPS?MAIN
001C43H   001C60H   00001EH   BYTE   UNIT     CODE           ?PR?CLEARDISPLAYS?MAIN
001C61H   001C7DH   00001DH   BYTE   UNIT     CODE           ?PR?_USB_READFIFO_IDATA?EFM8_USBDEP
001C7EH   001C97H   00001AH   BYTE   UNIT     CODE           ?PR?_TIMER2_INIT?MAIN
001C98H   001CAEH   000017H   BYTE   UNIT     CODE           ?PR?_USB_WRITEFIFO_CODE?EFM8_USBDEP
001CAFH   001CC4H   000016H   BYTE   UNIT     CODE           ?PR?_USB_WRITEFIFO_XDATA?EFM8_USBDEP
001CC5H   001CDAH   000016H   BYTE   UNIT     CODE           ?PR?_IDLETIMERSET?IDLE
001CDBH   001CEEH   000014H   BYTE   UNIT     CODE           ?PR?_USB_WRITEFIFO_IDATA?EFM8_USBDEP
001CEFH   001D02H   000014H   BYTE   UNIT     CODE           ?PR?_USB_WRITEFIFO_PDATA?EFM8_USBDEP
001D03H   001D16H   000014H   BYTE   UNIT     CODE           ?PR?IDLETIMERTICK?IDLE
001D17H   001D28H   000012H   BYTE   UNIT     CODE           ?PR?HANDLEUSBSUSPENDINT?EFM8_USBDINT
001D29H   001D38H   000010H   BYTE   UNIT     CODE           ?PR?ADC_0_ENTER_DEFAULTMODE_FROM_RESET?INITDEVICE
001D39H   001D45H   00000DH   BYTE   UNIT     CODE           ?PR?USB_GETSETUPEND?USB_0
001D46H   001D52H   00000DH   BYTE   UNIT     CODE           ?PR?USB_EP0SENTSTALL?USB_0
001D53H   001D5FH   00000DH   BYTE   UNIT     CODE           ?PR?USB_EP0INPACKETREADY?USB_0
001D60H   001D6CH   00000DH   BYTE   UNIT     CODE           ?PR?USB_EPNINGETSENTSTALL?USB_0
001D6DH   001D79H   00000DH   BYTE   UNIT     CODE           ?PR?USB_EPNOUTGETSENTSTALL?USB_0
001D7AH   001D86H   00000DH   BYTE   UNIT     CODE           ?PR?PORTS_0_ENTER_DEFAULTMODE_FROM_RESET?INITDEVICE
001D87H   001D93H   00000DH   BYTE   UNIT     CODE           ?PR?PORTS_1_ENTER_DEFAULTMODE_FROM_RESET?INITDEVICE
001D94H   001DA0H   00000DH   BYTE   UNIT     CODE           ?PR?PORTS_2_ENTER_DEFAULTMODE_FROM_RESET?INITDEVICE
001DA1H   001DADH   00000DH   BYTE   UNIT     CODE           ?PR?PORTS_3_ENTER_DEFAULTMODE_FROM_RESET?INITDEVICE
001DAEH   001DBAH   00000DH   BYTE   UNIT     CODE           ?PR?ISIDLETIMEREXPIRED?IDLE
001DBBH   001DC6H   00000CH   BYTE   UNIT     CODE           ?PR?USB_EP0OUTPACKETREADY?USB_0
001DC7H   001DD2H   00000CH   BYTE   UNIT     CODE           ?PR?USB_EPNGETOUTPACKETREADY?USB_0
001DD3H   001DDDH   00000BH   BYTE   UNIT     CODE           ?PR?USBD_CONNECT?EFM8_USBD
001DDEH   001DE8H   00000BH   BYTE   UNIT     CODE           ?PR?_USB_SETINDEX?USB_0
001DE9H   001DF3H   00000BH   BYTE   UNIT     CODE           ?PR?USB_GETCOMMONINTS?USB_0
001DF4H   001DFEH   00000BH   BYTE   UNIT     CODE           ?PR?USB_GETININTS?USB_0
001DFFH   001E09H   00000BH   BYTE   UNIT     CODE           ?PR?USB_GETOUTINTS?USB_0
001E0AH   001E14H   00000BH   BYTE   UNIT     CODE           ?PR?USB_GETINDEX?USB_0
LX51 LINKER/LOCATER V4.66.97.0                                                        01/21/2021  22:11:49  PAGE 4


001E15H   001E1FH   00000BH   BYTE   UNIT     CODE           ?PR?USB_EP0GETCOUNT?USB_0
001E20H   001E29H   00000AH   BYTE   UNIT     CODE           ?PR?PCACH_0_ENTER_DEFAULTMODE_FROM_RESET?INITDEVICE
001E2AH   001E33H   00000AH   BYTE   UNIT     CODE           ?PR?PCACH_1_ENTER_DEFAULTMODE_FROM_RESET?INITDEVICE
001E34H   001E3DH   00000AH   BYTE   UNIT     CODE           ?PR?PORTS_4_ENTER_DEFAULTMODE_FROM_RESET?INITDEVICE
001E3EH   001E47H   00000AH   BYTE   UNIT     CODE           ?PR?PCACH_4_ENTER_DEFAULTMODE_FROM_RESET?INITDEVICE
001E48H   001E50H   000009H   BYTE   UNIT     CODE           ?PR?PCA_0_ENTER_DEFAULTMODE_FROM_RESET?INITDEVICE
001E51H   001E59H   000009H   BYTE   UNIT     CODE           ?PR?USBLIB_0_ENTER_DEFAULTMODE_FROM_RESET?INITDEVICE
001E5AH   001E60H   000007H   BYTE   UNIT     CODE           ?PR?HANDLEUSBRESUMEINT?EFM8_USBDINT
001E61H   001E67H   000007H   BYTE   UNIT     CODE           ?PR?INTERRUPT_0_ENTER_DEFAULTMODE_FROM_RESET?INITDEVICE
001E68H   001E6DH   000006H   BYTE   UNIT     CODE           ?PR?TIMER2_ISR?MAIN
001E6EH   001E72H   000005H   BYTE   UNIT     CODE           ?PR?USBD_GETUSBSTATE?EFM8_USBD
001E73H   001E77H   000005H   BYTE   UNIT     CODE           ?PR?USB_EPOUTGETCOUNT?USB_0
001E78H   001E7CH   000005H   BYTE   UNIT     CODE           ?PR?USB_GETSOFNUMBER?USB_0
001E7DH   001E80H   000004H   BYTE   UNIT     CODE           ?PR?PBCFG_0_ENTER_DEFAULTMODE_FROM_RESET?INITDEVICE
001E81H   001E84H   000004H   BYTE   UNIT     CODE           ?PR?CLOCK_0_ENTER_DEFAULTMODE_FROM_RESET?INITDEVICE
001E85H   001E88H   000004H   BYTE   UNIT     CODE           ?PR?VREF_0_ENTER_DEFAULTMODE_FROM_RESET?INITDEVICE
001E89H   001E8BH   000003H   BYTE   UNIT     CODE           ?PR?IDLEGETRATE?IDLE
001E8CH   001E8DH   000002H   BYTE   UNIT     CODE           ?PR?SLAB_ASSERT?ASSERT
001E8EH   001E8FH   000002H   BYTE   UNIT     CODE           ?PR?USBD_ISSELFPOWEREDCB?CALLBACK
001E90H   001E90H   000001H   BYTE   UNIT     CODE           ?PR?USBD_RESETCB?CALLBACK
001E91H   001E91H   000001H   BYTE   UNIT     CODE           ?PR?SILABS_STARTUP?MAIN
001E92H   001F66H   0000D5H   BYTE   UNIT     CONST          ?CO?DESCRIPTORS
001F67H   001FBFH   000059H   BYTE   UNIT     CONST          ?CO?MAIN
001FC0H   001FC1H   000002H   BYTE   UNIT     CONST          ?CO?EFM8_USBDCH9

* * * * * * * * * * *  X D A T A   M E M O R Y  * * * * * * * * * * * * *
000000H   00008FH   000090H   BYTE   UNIT     XDATA          ?XD?CALLBACK
000090H   000113H   000084H   BYTE   UNIT     XDATA          ?XD?MAIN

* * * * * * * * *   R E M O V E D     S E G M E N T S   * * * * * * * *
   *DEL*:           000004H   BYTE   UNIT     CODE           ?PR?USBD_DISCONNECT?EFM8_USBD
   *DEL*:           00005EH   BYTE   UNIT     CODE           ?PR?_USBD_STALLEP?EFM8_USBD
   *DEL*:           000001H   BYTE   UNIT     DATA           ?DT?_USBD_STALLEP?EFM8_USBD
   *DEL*:           000000H.1 BIT    UNIT     BIT            ?BI?_USBD_STALLEP?EFM8_USBD
   *DEL*:           00000BH   BYTE   UNIT     CODE           ?PR?USBD_STOP?EFM8_USBD
   *DEL*:           00004CH   BYTE   UNIT     CODE           ?PR?USBD_SUSPEND?EFM8_USBD
   *DEL*:           000000H.1 BIT    UNIT     BIT            ?BI?USBD_SUSPEND?EFM8_USBD
   *DEL*:           00005EH   BYTE   UNIT     CODE           ?PR?_USBD_UNSTALLEP?EFM8_USBD
   *DEL*:           000001H   BYTE   UNIT     DATA           ?DT?_USBD_UNSTALLEP?EFM8_USBD
   *DEL*:           000000H.1 BIT    UNIT     BIT            ?BI?_USBD_UNSTALLEP?EFM8_USBD
   *DEL*:           00000DH   BYTE   UNIT     CODE           ?PR?USB_ISSUSPENDED?USB_0
   *DEL*:           00000DH   BYTE   UNIT     CODE           ?PR?USB_EPNGETDATAERROR?USB_0
   *DEL*:           000007H   BYTE   UNIT     CODE           ?PR?ISIDLETIMERINDEFINITE?IDLE
   *DEL*:           00002EH   BYTE   UNIT     CODE           ?PR?ENTERRANDOMBLINKMODE?MAIN
   *DEL*:           000093H   BYTE   UNIT     CODE           ?PR?RUNRANDOMBLINKMODE?MAIN



OVERLAY MAP OF MODULE:   EFM8UB2_HID_VENDORDEFINED_GRASSVALLEYSMSP32.OMF.CRBUILD (ASSERT)


FUNCTION/MODULE                                BIT_GROUP   DATA_GROUP 
--> CALLED FUNCTION/MODULE                    START  STOP  START  STOP
======================================================================
USBIRQHANDLER/EFM8_USBDINT                    ----- -----  0021H 0024H
  +--> USB_GETCOMMONINTS/USB_0
  +--> USB_GETININTS/USB_0
  +--> USB_GETOUTINTS/USB_0
  +--> USB_GETINDEX/USB_0
  +--> USB_GETSOFNUMBER/USB_0
  +--> _USBD_SOFCB/CALLBACK
  +--> HANDLEUSBRESETINT/EFM8_USBDINT
LX51 LINKER/LOCATER V4.66.97.0                                                        01/21/2021  22:11:49  PAGE 5


  +--> HANDLEUSBRESUMEINT/EFM8_USBDINT
  +--> HANDLEUSBSUSPENDINT/EFM8_USBDINT
  +--> HANDLEUSBIN1INT/EFM8_USBDEP
  +--> HANDLEUSBOUT1INT/EFM8_USBDEP
  +--> HANDLEUSBEP0INT/EFM8_USBDINT
  +--> _USB_SETINDEX/USB_0

USB_GETCOMMONINTS/USB_0                       ----- -----  ----- -----

USB_GETININTS/USB_0                           ----- -----  ----- -----

USB_GETOUTINTS/USB_0                          ----- -----  ----- -----

USB_GETINDEX/USB_0                            ----- -----  ----- -----

USB_GETSOFNUMBER/USB_0                        ----- -----  ----- -----
  +--> _USB_GETSHORTREGISTER/USB_0

_USB_GETSHORTREGISTER/USB_0                   ----- -----  ----- -----

_USBD_SOFCB/CALLBACK                          ----- -----  0025H 0027H
  +--> IDLETIMERTICK/IDLE
  +--> ISIDLETIMEREXPIRED/IDLE
  +--> _USBD_EPISBUSY/EFM8_USBD
  +--> _USBD_WRITE/EFM8_USBD

IDLETIMERTICK/IDLE                            ----- -----  ----- -----

ISIDLETIMEREXPIRED/IDLE                       ----- -----  ----- -----
  +--> IDLETIMERSTART/IDLE

IDLETIMERSTART/IDLE                           ----- -----  ----- -----

_USBD_EPISBUSY/EFM8_USBD                      ----- -----  0028H 0028H
  +--> SLAB_ASSERT/ASSERT

SLAB_ASSERT/ASSERT                            ----- -----  ----- -----

_USBD_WRITE/EFM8_USBD                         20H.0 20H.1  0028H 002DH
  +--> SLAB_ASSERT/ASSERT
  +--> _USB_WRITEFIFO/EFM8_USBDEP

_USB_WRITEFIFO/EFM8_USBDEP                    20H.2 20H.2  002EH 0032H
  +--> _USB_WRITEFIFO_IDATA/EFM8_USBDEP
  +--> _USB_WRITEFIFO_XDATA/EFM8_USBDEP
  +--> _USB_WRITEFIFO_PDATA/EFM8_USBDEP
  +--> _USB_WRITEFIFO_CODE/EFM8_USBDEP
  +--> _USB_SETINDEX/USB_0

_USB_WRITEFIFO_IDATA/EFM8_USBDEP              ----- -----  ----- -----

_USB_WRITEFIFO_XDATA/EFM8_USBDEP              ----- -----  ----- -----

_USB_WRITEFIFO_PDATA/EFM8_USBDEP              ----- -----  ----- -----

_USB_WRITEFIFO_CODE/EFM8_USBDEP               ----- -----  ----- -----

_USB_SETINDEX/USB_0                           ----- -----  ----- -----

HANDLEUSBRESETINT/EFM8_USBDINT                ----- -----  ----- -----
  +--> _USBD_SETUSBSTATE/EFM8_USBD
  +--> USBD_RESETCB/CALLBACK
LX51 LINKER/LOCATER V4.66.97.0                                                        01/21/2021  22:11:49  PAGE 6



_USBD_SETUSBSTATE/EFM8_USBD                   ----- -----  0027H 0028H
  +--> USBD_ABORTALLTRANSFERS/EFM8_USBD
  +--> _USBD_DEVICESTATECHANGECB/CALLBACK

USBD_ABORTALLTRANSFERS/EFM8_USBD              20H.0 20H.0  0029H 0029H
  +--> _USBD_ABORTTRANSFER/EFM8_USBD

_USBD_ABORTTRANSFER/EFM8_USBD                 20H.1 20H.1  002BH 002DH
  +--> SLAB_ASSERT/ASSERT
  +--> _USB_ABORTINEP/USB_0
  +--> _USB_ABORTOUTEP/USB_0

_USB_ABORTINEP/USB_0                          ----- -----  ----- -----
  +--> _USB_SETINDEX/USB_0

_USB_ABORTOUTEP/USB_0                         ----- -----  ----- -----
  +--> _USB_SETINDEX/USB_0

_USBD_DEVICESTATECHANGECB/CALLBACK            ----- -----  0029H 002AH
  +--> _USBD_ABORTTRANSFER/EFM8_USBD
  +--> _IDLETIMERSET/IDLE
  +--> _USBD_READ/EFM8_USBD

_IDLETIMERSET/IDLE                            ----- -----  ----- -----
  +--> IDLETIMERSTART/IDLE

_USBD_READ/EFM8_USBD                          20H.1 20H.2  0030H 0035H
  +--> SLAB_ASSERT/ASSERT

USBD_RESETCB/CALLBACK                         ----- -----  ----- -----

HANDLEUSBRESUMEINT/EFM8_USBDINT               ----- -----  ----- -----
  +--> _USBD_SETUSBSTATE/EFM8_USBD

HANDLEUSBSUSPENDINT/EFM8_USBDINT              ----- -----  ----- -----
  +--> _USBD_SETUSBSTATE/EFM8_USBD

HANDLEUSBIN1INT/EFM8_USBDEP                   20H.0 20H.0  0025H 0025H
  +--> _USB_SETINDEX/USB_0
  +--> USB_EPNINGETSENTSTALL/USB_0
  +--> _USB_WRITEFIFO/EFM8_USBDEP
  +--> _USBD_XFERCOMPLETECB/CALLBACK

USB_EPNINGETSENTSTALL/USB_0                   ----- -----  ----- -----

_USBD_XFERCOMPLETECB/CALLBACK                 ----- -----  0029H 002FH
  +--> _USBD_READ/EFM8_USBD

HANDLEUSBOUT1INT/EFM8_USBDEP                  20H.0 20H.0  0025H 0026H
  +--> _USB_SETINDEX/USB_0
  +--> USB_EPNOUTGETSENTSTALL/USB_0
  +--> USB_EPNGETOUTPACKETREADY/USB_0
  +--> USB_EPOUTGETCOUNT/USB_0
  +--> _USB_READFIFO/EFM8_USBDEP
  +--> _USBD_XFERCOMPLETECB/CALLBACK

USB_EPNOUTGETSENTSTALL/USB_0                  ----- -----  ----- -----

USB_EPNGETOUTPACKETREADY/USB_0                ----- -----  ----- -----

USB_EPOUTGETCOUNT/USB_0                       ----- -----  ----- -----
LX51 LINKER/LOCATER V4.66.97.0                                                        01/21/2021  22:11:49  PAGE 7


  +--> _USB_GETSHORTREGISTER/USB_0

_USB_READFIFO/EFM8_USBDEP                     ----- -----  0028H 002CH
  +--> _USB_READFIFO_IDATA/EFM8_USBDEP
  +--> _USB_READFIFO_XDATA/EFM8_USBDEP
  +--> _USB_READFIFO_PDATA/EFM8_USBDEP

_USB_READFIFO_IDATA/EFM8_USBDEP               ----- -----  ----- -----

_USB_READFIFO_XDATA/EFM8_USBDEP               ----- -----  ----- -----

_USB_READFIFO_PDATA/EFM8_USBDEP               ----- -----  ----- -----

HANDLEUSBEP0INT/EFM8_USBDINT                  ----- -----  0025H 0025H
  +--> _USB_SETINDEX/USB_0
  +--> USB_EP0SENTSTALL/USB_0
  +--> USB_GETSETUPEND/USB_0
  +--> USB_EP0OUTPACKETREADY/USB_0
  +--> USB_READFIFOSETUP/EFM8_USBDINT
  +--> _USBD_SETUPCMDCB/CALLBACK
  +--> USBDCH9_SETUPCMD/EFM8_USBDCH9
  +--> SENDEP0STALL/EFM8_USBDINT
  +--> HANDLEUSBEP0RX/EFM8_USBDINT
  +--> USB_EP0INPACKETREADY/USB_0
  +--> HANDLEUSBEP0TX/EFM8_USBDINT

USB_EP0SENTSTALL/USB_0                        ----- -----  ----- -----

USB_GETSETUPEND/USB_0                         ----- -----  ----- -----

USB_EP0OUTPACKETREADY/USB_0                   ----- -----  ----- -----

USB_READFIFOSETUP/EFM8_USBDINT                ----- -----  0026H 0026H
  +--> _USB_READFIFO/EFM8_USBDEP

_USBD_SETUPCMDCB/CALLBACK                     ----- -----  0026H 0027H
  +--> _IDLETIMERSET/IDLE
  +--> IDLEGETRATE/IDLE
  +--> _USBD_WRITE/EFM8_USBD

IDLEGETRATE/IDLE                              ----- -----  ----- -----

USBDCH9_SETUPCMD/EFM8_USBDCH9                 ----- -----  ----- -----
  +--> GETSTATUS/EFM8_USBDCH9
  +--> CLEARFEATURE/EFM8_USBDCH9
  +--> SETFEATURE/EFM8_USBDCH9
  +--> SETADDRESS/EFM8_USBDCH9
  +--> GETDESCRIPTOR/EFM8_USBDCH9
  +--> GETCONFIGURATION/EFM8_USBDCH9
  +--> SETCONFIGURATION/EFM8_USBDCH9
  +--> GETINTERFACE/EFM8_USBDCH9
  +--> SETINTERFACE/EFM8_USBDCH9

GETSTATUS/EFM8_USBDCH9                        ----- -----  0026H 0026H
  +--> USBD_ISSELFPOWEREDCB/CALLBACK
  +--> _EP0_WRITE/EFM8_USBDCH9

USBD_ISSELFPOWEREDCB/CALLBACK                 ----- -----  ----- -----

_EP0_WRITE/EFM8_USBDCH9                       ----- -----  ----- -----

CLEARFEATURE/EFM8_USBDCH9                     ----- -----  0026H 0026H
LX51 LINKER/LOCATER V4.66.97.0                                                        01/21/2021  22:11:49  PAGE 8


  +--> _USB_SETINDEX/USB_0

SETFEATURE/EFM8_USBDCH9                       ----- -----  0026H 0026H
  +--> _USB_SETINDEX/USB_0

SETADDRESS/EFM8_USBDCH9                       ----- -----  0026H 0026H
  +--> _USBD_SETUSBSTATE/EFM8_USBD

GETDESCRIPTOR/EFM8_USBDCH9                    ----- -----  0026H 002AH
  +--> _EP0_WRITE/EFM8_USBDCH9

GETCONFIGURATION/EFM8_USBDCH9                 ----- -----  ----- -----
  +--> _EP0_WRITE/EFM8_USBDCH9

SETCONFIGURATION/EFM8_USBDCH9                 ----- -----  0026H 0026H
  +--> USBD_ACTIVATEALLEPS/EFM8_USBDCH9
  +--> _USBD_SETUSBSTATE/EFM8_USBD
  +--> USBD_ABORTALLTRANSFERS/EFM8_USBD

USBD_ACTIVATEALLEPS/EFM8_USBDCH9              20H.0 20H.0  ----- -----
  +--> _USB_ACTIVATEEP/USB_0

_USB_ACTIVATEEP/USB_0                         20H.1 20H.3  ----- -----
  +--> _USB_SETINDEX/USB_0

GETINTERFACE/EFM8_USBDCH9                     ----- -----  ----- -----
  +--> _EP0_WRITE/EFM8_USBDCH9

SETINTERFACE/EFM8_USBDCH9                     ----- -----  ----- -----
  +--> USBD_ACTIVATEALLEPS/EFM8_USBDCH9

SENDEP0STALL/EFM8_USBDINT                     ----- -----  ----- -----
  +--> _USB_SETINDEX/USB_0

HANDLEUSBEP0RX/EFM8_USBDINT                   20H.0 20H.0  0026H 0027H
  +--> USB_EP0GETCOUNT/USB_0
  +--> _USB_READFIFO/EFM8_USBDEP
  +--> _USBD_XFERCOMPLETECB/CALLBACK

USB_EP0GETCOUNT/USB_0                         ----- -----  ----- -----

USB_EP0INPACKETREADY/USB_0                    ----- -----  ----- -----

HANDLEUSBEP0TX/EFM8_USBDINT                   20H.0 20H.0  0026H 0028H
  +--> _USB_WRITEFIFO/EFM8_USBDEP
  +--> _USBD_XFERCOMPLETECB/CALLBACK

*** NEW ROOT ********************************

?C_C51STARTUP                                 ----- -----  ----- -----
  +--> SILABS_STARTUP/MAIN
  +--> MAIN/MAIN
  +--> ?C_INITSEG

SILABS_STARTUP/MAIN                           ----- -----  ----- -----

MAIN/MAIN                                     ----- -----  0036H 003DH
  +--> ENTER_DEFAULTMODE_FROM_RESET/INITDEVICE
  +--> CLEARLAMPS/MAIN
  +--> CLEARDISPLAYS/MAIN
  +--> _TIMER2_INIT/MAIN
  +--> ENTERGROUPEIGHTBLINKMODE/MAIN
LX51 LINKER/LOCATER V4.66.97.0                                                        01/21/2021  22:11:49  PAGE 9


  +--> _SETLAMPS/MAIN
  +--> _SETDISPLAY/MAIN
  +--> USBD_GETUSBSTATE/EFM8_USBD
  +--> RUNGROUPEIGHTBLINKMODE/MAIN
  +--> LFSR/MAIN

ENTER_DEFAULTMODE_FROM_RESET/INITDEVICE       ----- -----  003EH 003EH
  +--> PCA_0_ENTER_DEFAULTMODE_FROM_RESET/INITDEVICE
  +--> PCACH_0_ENTER_DEFAULTMODE_FROM_RESET/INITDEVICE
  +--> PCACH_1_ENTER_DEFAULTMODE_FROM_RESET/INITDEVICE
  +--> PCACH_4_ENTER_DEFAULTMODE_FROM_RESET/INITDEVICE
  +--> PORTS_0_ENTER_DEFAULTMODE_FROM_RESET/INITDEVICE
  +--> PORTS_1_ENTER_DEFAULTMODE_FROM_RESET/INITDEVICE
  +--> PORTS_2_ENTER_DEFAULTMODE_FROM_RESET/INITDEVICE
  +--> PORTS_3_ENTER_DEFAULTMODE_FROM_RESET/INITDEVICE
  +--> PORTS_4_ENTER_DEFAULTMODE_FROM_RESET/INITDEVICE
  +--> PBCFG_0_ENTER_DEFAULTMODE_FROM_RESET/INITDEVICE
  +--> ADC_0_ENTER_DEFAULTMODE_FROM_RESET/INITDEVICE
  +--> VREF_0_ENTER_DEFAULTMODE_FROM_RESET/INITDEVICE
  +--> CLOCK_0_ENTER_DEFAULTMODE_FROM_RESET/INITDEVICE
  +--> INTERRUPT_0_ENTER_DEFAULTMODE_FROM_RESET/INITDEVICE
  +--> USBLIB_0_ENTER_DEFAULTMODE_FROM_RESET/INITDEVICE

PCA_0_ENTER_DEFAULTMODE_FROM_RESET/INITD+     ----- -----  ----- -----
... EVICE

PCACH_0_ENTER_DEFAULTMODE_FROM_RESET/INI+     ----- -----  ----- -----
... TDEVICE

PCACH_1_ENTER_DEFAULTMODE_FROM_RESET/INI+     ----- -----  ----- -----
... TDEVICE

PCACH_4_ENTER_DEFAULTMODE_FROM_RESET/INI+     ----- -----  ----- -----
... TDEVICE

PORTS_0_ENTER_DEFAULTMODE_FROM_RESET/INI+     ----- -----  ----- -----
... TDEVICE

PORTS_1_ENTER_DEFAULTMODE_FROM_RESET/INI+     ----- -----  ----- -----
... TDEVICE

PORTS_2_ENTER_DEFAULTMODE_FROM_RESET/INI+     ----- -----  ----- -----
... TDEVICE

PORTS_3_ENTER_DEFAULTMODE_FROM_RESET/INI+     ----- -----  ----- -----
... TDEVICE

PORTS_4_ENTER_DEFAULTMODE_FROM_RESET/INI+     ----- -----  ----- -----
... TDEVICE

PBCFG_0_ENTER_DEFAULTMODE_FROM_RESET/INI+     ----- -----  ----- -----
... TDEVICE

ADC_0_ENTER_DEFAULTMODE_FROM_RESET/INITD+     ----- -----  ----- -----
... EVICE

VREF_0_ENTER_DEFAULTMODE_FROM_RESET/INIT+     ----- -----  ----- -----
... DEVICE

CLOCK_0_ENTER_DEFAULTMODE_FROM_RESET/INI+     ----- -----  ----- -----
... TDEVICE

LX51 LINKER/LOCATER V4.66.97.0                                                        01/21/2021  22:11:49  PAGE 10


INTERRUPT_0_ENTER_DEFAULTMODE_FROM_RESET+     ----- -----  ----- -----
... /INITDEVICE

USBLIB_0_ENTER_DEFAULTMODE_FROM_RESET/IN+     ----- -----  ----- -----
... ITDEVICE
  +--> _USBD_INIT/EFM8_USBD

_USBD_INIT/EFM8_USBD                          ----- -----  003FH 0041H
  +--> FORCEMODULELOAD_USBINT/EFM8_USBDINT
  +--> USBD_CONNECT/EFM8_USBD

FORCEMODULELOAD_USBINT/EFM8_USBDINT           ----- -----  ----- -----

USBD_CONNECT/EFM8_USBD                        ----- -----  ----- -----

CLEARLAMPS/MAIN                               ----- -----  003EH 0042H
  +--> _SETLAMPS/MAIN

_SETLAMPS/MAIN                                ----- -----  ----- -----

CLEARDISPLAYS/MAIN                            ----- -----  003EH 003EH
  +--> _SETDISPLAY/MAIN

_SETDISPLAY/MAIN                              ----- -----  003FH 0040H

_TIMER2_INIT/MAIN                             ----- -----  ----- -----

ENTERGROUPEIGHTBLINKMODE/MAIN                 ----- -----  ----- -----

USBD_GETUSBSTATE/EFM8_USBD                    ----- -----  ----- -----

RUNGROUPEIGHTBLINKMODE/MAIN                   ----- -----  ----- -----

LFSR/MAIN                                     ----- -----  ----- -----

?C_INITSEG                                    ----- -----  ----- -----

*** NEW ROOT ********************************

TIMER2_ISR/MAIN                               ----- -----  ----- -----



PUBLIC SYMBOLS OF MODULE:  EFM8UB2_HID_VENDORDEFINED_GRASSVALLEYSMSP32.OMF.CRBUILD (ASSERT)


      VALUE       CLASS    TYPE      PUBLIC SYMBOL NAME
      =================================================
      00000020H.1 BIT      BIT       ?_USB_ActivateEp?BIT
      00000020H.2 BIT      BIT       ?_USB_WriteFIFO?BIT
      00000020H.1 BIT      BIT       ?_USBD_Read?BIT
      00000030H   DATA     BYTE      ?_USBD_Read?BYTE
      00000020H.0 BIT      BIT       ?_USBD_Write?BIT
      00000028H   DATA     BYTE      ?_USBD_Write?BYTE
      00000029H   DATA     BYTE      ?_USBD_XferCompleteCb?BYTE
      01000447H   CODE     ---       ?C?CLDOPTR
      0100042EH   CODE     ---       ?C?CLDPTR
      00000000H   NUMBER   ---       ?C?CODESEG
      010004C9H   CODE     ---       ?C?IILDX
      010004DFH   CODE     ---       ?C?ILDOPTR
      01000582H   CODE     ---       ?C?PLDCODE
      01000567H   CODE     ---       ?C?PLDIDATA
LX51 LINKER/LOCATER V4.66.97.0                                                        01/21/2021  22:11:49  PAGE 11


      01000537H   CODE     ---       ?C?PLDOPTR
      01000579H   CODE     ---       ?C?PLDPDATA
      01000517H   CODE     ---       ?C?PLDPTR
      01000570H   CODE     ---       ?C?PLDXDATA
      01000474H   CODE     ---       ?C?UIDIV
      00000000H   NUMBER   ---       ?C?XDATASEG
      0100141AH   CODE     ---       ?C_START
      01000000H   CODE     NEAR LAB  ?C_STARTUP
      01001CC5H   CODE     ---       _idleTimerSet
      01000A45H   CODE     ---       _SetDisplay
      010016B1H   CODE     ---       _SetLamps
      01001C7EH   CODE     ---       _Timer2_Init
      01001A37H   CODE     ---       _USB_AbortInEp
      01001A6BH   CODE     ---       _USB_AbortOutEp
      010014E6H   CODE     ---       _USB_ActivateEp
      010018C3H   CODE     ---       _USB_ReadFIFO
      01001DDEH   CODE     ---       _USB_SetIndex
      0100156DH   CODE     ---       _USB_WriteFIFO
      01001711H   CODE     ---       _USBD_AbortTransfer
      0100198CH   CODE     ---       _USBD_DeviceStateChangeCb
      01001B60H   CODE     ---       _USBD_EpIsBusy
      01001004H   CODE     ---       _USBD_Init
      0100145FH   CODE     ---       _USBD_Read
      0100058EH   CODE     ---       _USBD_SetupCmdCb
      010019C7H   CODE     ---       _USBD_SetUsbState
      010006E9H   CODE     ---       _USBD_SofCb
*DEL*:00000000H   CODE     ---       _USBD_StallEp
*DEL*:00000000H   CODE     ---       _USBD_UnStallEp
      01000F4DH   CODE     ---       _USBD_Write
      01001205H   CODE     ---       _USBD_XferCompleteCb
*SFR* 000000E0H   DATA     BYTE      ACC
*SFR* 000000E0H.0 DATA     BIT       ACC_ACC0
*SFR* 000000E0H.1 DATA     BIT       ACC_ACC1
*SFR* 000000E0H.2 DATA     BIT       ACC_ACC2
*SFR* 000000E0H.3 DATA     BIT       ACC_ACC3
*SFR* 000000E0H.4 DATA     BIT       ACC_ACC4
*SFR* 000000E0H.5 DATA     BIT       ACC_ACC5
*SFR* 000000E0H.6 DATA     BIT       ACC_ACC6
*SFR* 000000E0H.7 DATA     BIT       ACC_ACC7
*SFR* 000000BDH   DATA     WORD      ADC0
*SFR* 000000BCH   DATA     BYTE      ADC0CF
*SFR* 000000E8H   DATA     BYTE      ADC0CN0
*SFR* 000000E8H.4 DATA     BIT       ADC0CN0_ADBUSY
*SFR* 000000E8H.0 DATA     BIT       ADC0CN0_ADCM0
*SFR* 000000E8H.1 DATA     BIT       ADC0CN0_ADCM1
*SFR* 000000E8H.2 DATA     BIT       ADC0CN0_ADCM2
*SFR* 000000E8H.7 DATA     BIT       ADC0CN0_ADEN
*SFR* 000000E8H.5 DATA     BIT       ADC0CN0_ADINT
*SFR* 000000E8H.6 DATA     BIT       ADC0CN0_ADTM
*SFR* 000000E8H.3 DATA     BIT       ADC0CN0_ADWINT
*SFR* 000000C3H   DATA     WORD      ADC0GT
*SFR* 000000C4H   DATA     BYTE      ADC0GTH
*SFR* 000000C3H   DATA     BYTE      ADC0GTL
*SFR* 000000BEH   DATA     BYTE      ADC0H
*SFR* 000000BDH   DATA     BYTE      ADC0L
*SFR* 000000C5H   DATA     WORD      ADC0LT
*SFR* 000000C6H   DATA     BYTE      ADC0LTH
*SFR* 000000C5H   DATA     BYTE      ADC0LTL
      01001D29H   CODE     ---       ADC_0_enter_DefaultMode_from_RESET
*SFR* 000000BAH   DATA     BYTE      AMX0N
*SFR* 000000BBH   DATA     BYTE      AMX0P
*SFR* 000000F0H   DATA     BYTE      B
LX51 LINKER/LOCATER V4.66.97.0                                                        01/21/2021  22:11:49  PAGE 12


*SFR* 000000F0H.0 DATA     BIT       B_B0
*SFR* 000000F0H.1 DATA     BIT       B_B1
*SFR* 000000F0H.2 DATA     BIT       B_B2
*SFR* 000000F0H.3 DATA     BIT       B_B3
*SFR* 000000F0H.4 DATA     BIT       B_B4
*SFR* 000000F0H.5 DATA     BIT       B_B5
*SFR* 000000F0H.6 DATA     BIT       B_B6
*SFR* 000000F0H.7 DATA     BIT       B_B7
*SFR* 0000008EH   DATA     BYTE      CKCON0
*SFR* 000000E4H   DATA     BYTE      CKCON1
      01001C43H   CODE     ---       ClearDisplays
      01001C25H   CODE     ---       ClearLamps
*SFR* 000000A9H   DATA     BYTE      CLKSEL
      01001E81H   CODE     ---       CLOCK_0_enter_DefaultMode_from_RESET
*SFR* 0000009BH   DATA     BYTE      CMP0CN0
*SFR* 0000009DH   DATA     BYTE      CMP0MD
*SFR* 0000009FH   DATA     BYTE      CMP0MX
*SFR* 0000009AH   DATA     BYTE      CMP1CN0
*SFR* 0000009CH   DATA     BYTE      CMP1MD
*SFR* 0000009EH   DATA     BYTE      CMP1MX
      01001EA4H   CONST    ---       configDesc
*SFR* 000000A0H.2 DATA     BIT       CS_n
      01001E92H   CONST    ---       deviceDesc
*SFR* 000000A0H.1 DATA     BIT       DIR
*SFR* 00000082H   DATA     WORD      DP
*SFR* 00000083H   DATA     BYTE      DPH
*SFR* 00000082H   DATA     BYTE      DPL
*SFR* 000000E6H   DATA     BYTE      EIE1
*SFR* 000000E7H   DATA     BYTE      EIE2
*SFR* 000000F6H   DATA     BYTE      EIP1
*SFR* 000000F7H   DATA     BYTE      EIP2
*SFR* 00000085H   DATA     BYTE      EMI0CF
*SFR* 000000AAH   DATA     BYTE      EMI0CN
*SFR* 00000084H   DATA     BYTE      EMI0TC
      01001A9FH   CODE     ---       enter_DefaultMode_from_RESET
      01001B06H   CODE     ---       EnterGroupEightBlinkMode
*DEL*:00000000H   CODE     ---       EnterRandomBlinkMode
      0000000EH   DATA     BYTE      flag100
*SFR* 000000B7H   DATA     BYTE      FLKEY
*SFR* 000000B6H   DATA     BYTE      FLSCL
      0100002AH   CODE     ---       forceModuleLoad_usbint
      010012A5H   CODE     ---       handleUsbEp0Rx
      0100115DH   CODE     ---       handleUsbIn1Int
      01000C29H   CODE     ---       handleUsbOut1Int
*SFR* 000000B3H   DATA     BYTE      HFO0CAL
*SFR* 000000B2H   DATA     BYTE      HFO0CN
      01001E89H   CODE     ---       idleGetRate
      01001C07H   CODE     ---       idleTimerStart
      01001D03H   CODE     ---       idleTimerTick
*SFR* 000000A8H   DATA     BYTE      IE
*SFR* 000000A8H.7 DATA     BIT       IE_EA
*SFR* 000000A8H.4 DATA     BIT       IE_ES0
*SFR* 000000A8H.6 DATA     BIT       IE_ESPI0
*SFR* 000000A8H.1 DATA     BIT       IE_ET0
*SFR* 000000A8H.3 DATA     BIT       IE_ET1
*SFR* 000000A8H.5 DATA     BIT       IE_ET2
*SFR* 000000A8H.0 DATA     BIT       IE_EX0
*SFR* 000000A8H.2 DATA     BIT       IE_EX1
      01001F5DH   CONST    ---       initstruct
      01001E61H   CODE     ---       INTERRUPT_0_enter_DefaultMode_from_RESET
*SFR* 000000B8H   DATA     BYTE      IP
*SFR* 000000B8H.4 DATA     BIT       IP_PS0
LX51 LINKER/LOCATER V4.66.97.0                                                        01/21/2021  22:11:49  PAGE 13


*SFR* 000000B8H.6 DATA     BIT       IP_PSPI0
*SFR* 000000B8H.1 DATA     BIT       IP_PT0
*SFR* 000000B8H.3 DATA     BIT       IP_PT1
*SFR* 000000B8H.5 DATA     BIT       IP_PT2
*SFR* 000000B8H.0 DATA     BIT       IP_PX0
*SFR* 000000B8H.2 DATA     BIT       IP_PX1
      01001DAEH   CODE     ---       isIdleTimerExpired
*DEL*:00000000H   CODE     ---       isIdleTimerIndefinite
*SFR* 000000E4H   DATA     BYTE      IT01CF
      00000008H   DATA     BYTE      keyReportNeeded
      0000000AH   DATA     BYTE      keyScanState
      020000F0H   XDATA    BYTE      lamp_index
      020000A0H   XDATA    ---       lamp_states
      020000F1H   XDATA    BYTE      lamp_timer
      020000C8H   XDATA    ---       lamp_timers
      01001F70H   CONST    ---       lamps
      02000080H   XDATA    ---       lastKeyScan
*SFR* 000000B0H.5 DATA     BIT       LED
*SFR* 00000086H   DATA     BYTE      LFO0CN
      010017CDH   CODE     ---       lfsr
      0000000FH   DATA     WORD      lfsr_state
      0200010BH   XDATA    ---       localDisplayUpdateData
      0200009FH   XDATA    BYTE      localDisplayUpdateNeeded
      02000107H   XDATA    BYTE      localDisplayUpdateWhich
      02000090H   XDATA    ---       localLampUpdateData
      02000108H   XDATA    BYTE      localLampUpdateNeeded
      01000046H   CODE     ---       main
      00000043H   IDATA    ---       myUsbDevice
*SFR* 00000080H   DATA     BYTE      P0
*SFR* 00000080H.0 DATA     BIT       P0_B0
*SFR* 00000080H.1 DATA     BIT       P0_B1
*SFR* 00000080H.2 DATA     BIT       P0_B2
*SFR* 00000080H.3 DATA     BIT       P0_B3
*SFR* 00000080H.4 DATA     BIT       P0_B4
*SFR* 00000080H.5 DATA     BIT       P0_B5
*SFR* 00000080H.6 DATA     BIT       P0_B6
*SFR* 00000080H.7 DATA     BIT       P0_B7
*SFR* 000000F1H   DATA     BYTE      P0MDIN
*SFR* 000000A4H   DATA     BYTE      P0MDOUT
*SFR* 000000D4H   DATA     BYTE      P0SKIP
*SFR* 00000090H   DATA     BYTE      P1
*SFR* 00000090H.0 DATA     BIT       P1_B0
*SFR* 00000090H.1 DATA     BIT       P1_B1
*SFR* 00000090H.2 DATA     BIT       P1_B2
*SFR* 00000090H.3 DATA     BIT       P1_B3
*SFR* 00000090H.4 DATA     BIT       P1_B4
*SFR* 00000090H.5 DATA     BIT       P1_B5
*SFR* 00000090H.6 DATA     BIT       P1_B6
*SFR* 00000090H.7 DATA     BIT       P1_B7
*SFR* 000000F2H   DATA     BYTE      P1MDIN
*SFR* 000000A5H   DATA     BYTE      P1MDOUT
*SFR* 000000D5H   DATA     BYTE      P1SKIP
*SFR* 000000A0H   DATA     BYTE      P2
*SFR* 000000A0H.0 DATA     BIT       P2_B0
*SFR* 000000A0H.1 DATA     BIT       P2_B1
*SFR* 000000A0H.2 DATA     BIT       P2_B2
*SFR* 000000A0H.3 DATA     BIT       P2_B3
*SFR* 000000A0H.4 DATA     BIT       P2_B4
*SFR* 000000A0H.5 DATA     BIT       P2_B5
*SFR* 000000A0H.6 DATA     BIT       P2_B6
*SFR* 000000A0H.7 DATA     BIT       P2_B7
*SFR* 000000F3H   DATA     BYTE      P2MDIN
LX51 LINKER/LOCATER V4.66.97.0                                                        01/21/2021  22:11:49  PAGE 14


*SFR* 000000A6H   DATA     BYTE      P2MDOUT
*SFR* 000000D6H   DATA     BYTE      P2SKIP
*SFR* 000000B0H   DATA     BYTE      P3
*SFR* 000000B0H.0 DATA     BIT       P3_B0
*SFR* 000000B0H.1 DATA     BIT       P3_B1
*SFR* 000000B0H.2 DATA     BIT       P3_B2
*SFR* 000000B0H.3 DATA     BIT       P3_B3
*SFR* 000000B0H.4 DATA     BIT       P3_B4
*SFR* 000000B0H.5 DATA     BIT       P3_B5
*SFR* 000000B0H.6 DATA     BIT       P3_B6
*SFR* 000000B0H.7 DATA     BIT       P3_B7
*SFR* 000000F4H   DATA     BYTE      P3MDIN
*SFR* 000000A7H   DATA     BYTE      P3MDOUT
*SFR* 000000DFH   DATA     BYTE      P3SKIP
*SFR* 000000C7H   DATA     BYTE      P4
*SFR* 000000F5H   DATA     BYTE      P4MDIN
*SFR* 000000AEH   DATA     BYTE      P4MDOUT
      01001E7DH   CODE     ---       PBCFG_0_enter_DefaultMode_from_RESET
*SFR* 000000F9H   DATA     WORD      PCA0
*SFR* 000000D8H   DATA     BYTE      PCA0CN0
*SFR* 000000D8H.0 DATA     BIT       PCA0CN0_CCF0
*SFR* 000000D8H.1 DATA     BIT       PCA0CN0_CCF1
*SFR* 000000D8H.2 DATA     BIT       PCA0CN0_CCF2
*SFR* 000000D8H.3 DATA     BIT       PCA0CN0_CCF3
*SFR* 000000D8H.4 DATA     BIT       PCA0CN0_CCF4
*SFR* 000000D8H.7 DATA     BIT       PCA0CN0_CF
*SFR* 000000D8H.6 DATA     BIT       PCA0CN0_CR
*SFR* 000000FBH   DATA     WORD      PCA0CP0
*SFR* 000000E9H   DATA     WORD      PCA0CP1
*SFR* 000000EBH   DATA     WORD      PCA0CP2
*SFR* 000000EDH   DATA     WORD      PCA0CP3
*SFR* 000000FDH   DATA     WORD      PCA0CP4
*SFR* 000000FCH   DATA     BYTE      PCA0CPH0
*SFR* 000000EAH   DATA     BYTE      PCA0CPH1
*SFR* 000000ECH   DATA     BYTE      PCA0CPH2
*SFR* 000000EEH   DATA     BYTE      PCA0CPH3
*SFR* 000000FEH   DATA     BYTE      PCA0CPH4
*SFR* 000000FBH   DATA     BYTE      PCA0CPL0
*SFR* 000000E9H   DATA     BYTE      PCA0CPL1
*SFR* 000000EBH   DATA     BYTE      PCA0CPL2
*SFR* 000000EDH   DATA     BYTE      PCA0CPL3
*SFR* 000000FDH   DATA     BYTE      PCA0CPL4
*SFR* 000000DAH   DATA     BYTE      PCA0CPM0
*SFR* 000000DBH   DATA     BYTE      PCA0CPM1
*SFR* 000000DCH   DATA     BYTE      PCA0CPM2
*SFR* 000000DDH   DATA     BYTE      PCA0CPM3
*SFR* 000000DEH   DATA     BYTE      PCA0CPM4
*SFR* 000000FAH   DATA     BYTE      PCA0H
*SFR* 000000F9H   DATA     BYTE      PCA0L
*SFR* 000000D9H   DATA     BYTE      PCA0MD
      01001E48H   CODE     ---       PCA_0_enter_DefaultMode_from_RESET
      01001E20H   CODE     ---       PCACH_0_enter_DefaultMode_from_RESET
      01001E2AH   CODE     ---       PCACH_1_enter_DefaultMode_from_RESET
      01001E3EH   CODE     ---       PCACH_4_enter_DefaultMode_from_RESET
*SFR* 00000087H   DATA     BYTE      PCON0
*SFR* 000000AFH   DATA     BYTE      PFE0CN
      01001D7AH   CODE     ---       PORTS_0_enter_DefaultMode_from_RESET
      01001D87H   CODE     ---       PORTS_1_enter_DefaultMode_from_RESET
      01001D94H   CODE     ---       PORTS_2_enter_DefaultMode_from_RESET
      01001DA1H   CODE     ---       PORTS_3_enter_DefaultMode_from_RESET
      01001E34H   CODE     ---       PORTS_4_enter_DefaultMode_from_RESET
*SFR* 000000A0H   DATA     BYTE      PPAGE_SFR
LX51 LINKER/LOCATER V4.66.97.0                                                        01/21/2021  22:11:49  PAGE 15


*SFR* 0000008FH   DATA     BYTE      PSCTL
*SFR* 000000D0H   DATA     BYTE      PSW
*SFR* 000000D0H.6 DATA     BIT       PSW_AC
*SFR* 000000D0H.7 DATA     BIT       PSW_CY
*SFR* 000000D0H.5 DATA     BIT       PSW_F0
*SFR* 000000D0H.1 DATA     BIT       PSW_F1
*SFR* 000000D0H.2 DATA     BIT       PSW_OV
*SFR* 000000D0H.0 DATA     BIT       PSW_PARITY
*SFR* 000000D0H.3 DATA     BIT       PSW_RS0
*SFR* 000000D0H.4 DATA     BIT       PSW_RS1
*SFR* 000000D1H   DATA     BYTE      REF0CN
*SFR* 000000C9H   DATA     BYTE      REG01CN
      01001ECDH   CONST    ---       ReportDescriptor0
      020000F7H   XDATA    ---       rnd
      020000FFH   XDATA    ---       rndDispFinal
      02000109H   XDATA    ---       rndDispPhase
*SFR* 000000EFH   DATA     BYTE      RSTSRC
      01001644H   CODE     ---       RunGroupEightBlinkMode
*DEL*:00000000H   CODE     ---       RunRandomBlinkMode
      02000000H   XDATA    ---       rxBuffer
*SFR* 000000ACH   DATA     BYTE      SBCON1
*SFR* 000000B4H   DATA     WORD      SBRL1
*SFR* 000000B5H   DATA     BYTE      SBRLH1
*SFR* 000000B4H   DATA     BYTE      SBRLL1
*SFR* 00000099H   DATA     BYTE      SBUF0
*SFR* 000000D3H   DATA     BYTE      SBUF1
*SFR* 00000098H   DATA     BYTE      SCON0
*SFR* 00000098H.5 DATA     BIT       SCON0_MCE
*SFR* 00000098H.2 DATA     BIT       SCON0_RB8
*SFR* 00000098H.4 DATA     BIT       SCON0_REN
*SFR* 00000098H.0 DATA     BIT       SCON0_RI
*SFR* 00000098H.7 DATA     BIT       SCON0_SMODE
*SFR* 00000098H.3 DATA     BIT       SCON0_TB8
*SFR* 00000098H.1 DATA     BIT       SCON0_TI
*SFR* 000000D2H   DATA     BYTE      SCON1
      0100002EH   CODE     ---       SendEp0Stall
*SFR* 000000BFH   DATA     BYTE      SFRPAGE
      01001E91H   CODE     ---       SILABS_STARTUP
      01001E8CH   CODE     ---       slab_Assert
*SFR* 000000CEH   DATA     BYTE      SMB0ADM
*SFR* 000000CFH   DATA     BYTE      SMB0ADR
*SFR* 000000C1H   DATA     BYTE      SMB0CF
*SFR* 000000C0H   DATA     BYTE      SMB0CN0
*SFR* 000000C0H.1 DATA     BIT       SMB0CN0_ACK
*SFR* 000000C0H.3 DATA     BIT       SMB0CN0_ACKRQ
*SFR* 000000C0H.2 DATA     BIT       SMB0CN0_ARBLOST
*SFR* 000000C0H.7 DATA     BIT       SMB0CN0_MASTER
*SFR* 000000C0H.0 DATA     BIT       SMB0CN0_SI
*SFR* 000000C0H.5 DATA     BIT       SMB0CN0_STA
*SFR* 000000C0H.4 DATA     BIT       SMB0CN0_STO
*SFR* 000000C0H.6 DATA     BIT       SMB0CN0_TXMODE
*SFR* 000000C2H   DATA     BYTE      SMB0DAT
*SFR* 000000CEH   DATA     BYTE      SMB1ADM
*SFR* 000000CFH   DATA     BYTE      SMB1ADR
*SFR* 000000C1H   DATA     BYTE      SMB1CF
*SFR* 000000C0H   DATA     BYTE      SMB1CN0
*SFR* 000000C0H.1 DATA     BIT       SMB1CN0_ACK
*SFR* 000000C0H.3 DATA     BIT       SMB1CN0_ACKRQ
*SFR* 000000C0H.2 DATA     BIT       SMB1CN0_ARBLOST
*SFR* 000000C0H.7 DATA     BIT       SMB1CN0_MASTER
*SFR* 000000C0H.0 DATA     BIT       SMB1CN0_SI
*SFR* 000000C0H.5 DATA     BIT       SMB1CN0_STA
LX51 LINKER/LOCATER V4.66.97.0                                                        01/21/2021  22:11:49  PAGE 16


*SFR* 000000C0H.4 DATA     BIT       SMB1CN0_STO
*SFR* 000000C0H.6 DATA     BIT       SMB1CN0_TXMODE
*SFR* 000000C2H   DATA     BYTE      SMB1DAT
*SFR* 000000B9H   DATA     BYTE      SMBTC
*SFR* 000000E5H   DATA     BYTE      SMOD1
*SFR* 00000081H   DATA     BYTE      SP
*SFR* 000000A1H   DATA     BYTE      SPI0CFG
*SFR* 000000A2H   DATA     BYTE      SPI0CKR
*SFR* 000000F8H   DATA     BYTE      SPI0CN0
*SFR* 000000F8H.5 DATA     BIT       SPI0CN0_MODF
*SFR* 000000F8H.2 DATA     BIT       SPI0CN0_NSSMD0
*SFR* 000000F8H.3 DATA     BIT       SPI0CN0_NSSMD1
*SFR* 000000F8H.4 DATA     BIT       SPI0CN0_RXOVRN
*SFR* 000000F8H.0 DATA     BIT       SPI0CN0_SPIEN
*SFR* 000000F8H.7 DATA     BIT       SPI0CN0_SPIF
*SFR* 000000F8H.1 DATA     BIT       SPI0CN0_TXBMT
*SFR* 000000F8H.6 DATA     BIT       SPI0CN0_WCOL
*SFR* 000000A3H   DATA     BYTE      SPI0DAT
*SFR* 00000088H   DATA     BYTE      TCON
*SFR* 00000088H.1 DATA     BIT       TCON_IE0
*SFR* 00000088H.3 DATA     BIT       TCON_IE1
*SFR* 00000088H.0 DATA     BIT       TCON_IT0
*SFR* 00000088H.2 DATA     BIT       TCON_IT1
*SFR* 00000088H.5 DATA     BIT       TCON_TF0
*SFR* 00000088H.7 DATA     BIT       TCON_TF1
*SFR* 00000088H.4 DATA     BIT       TCON_TR0
*SFR* 00000088H.6 DATA     BIT       TCON_TR1
*SFR* 0000008CH   DATA     BYTE      TH0
*SFR* 0000008DH   DATA     BYTE      TH1
      02000088H   XDATA    ---       thisKeyScan
      01001E68H   CODE     ---       TIMER2_ISR
*SFR* 0000008AH   DATA     BYTE      TL0
*SFR* 0000008BH   DATA     BYTE      TL1
*SFR* 00000089H   DATA     BYTE      TMOD
      00000009H   DATA     BYTE      tmpBuffer
*SFR* 000000CCH   DATA     WORD      TMR2
*SFR* 000000C8H   DATA     BYTE      TMR2CN0
*SFR* 000000C8H.1 DATA     BIT       TMR2CN0_T2CSS
*SFR* 000000C8H.3 DATA     BIT       TMR2CN0_T2SPLIT
*SFR* 000000C8H.0 DATA     BIT       TMR2CN0_T2XCLK
*SFR* 000000C8H.4 DATA     BIT       TMR2CN0_TF2CEN
*SFR* 000000C8H.7 DATA     BIT       TMR2CN0_TF2H
*SFR* 000000C8H.6 DATA     BIT       TMR2CN0_TF2L
*SFR* 000000C8H.5 DATA     BIT       TMR2CN0_TF2LEN
*SFR* 000000C8H.2 DATA     BIT       TMR2CN0_TR2
*SFR* 000000CDH   DATA     BYTE      TMR2H
*SFR* 000000CCH   DATA     BYTE      TMR2L
*SFR* 000000CAH   DATA     WORD      TMR2RL
*SFR* 000000CBH   DATA     BYTE      TMR2RLH
*SFR* 000000CAH   DATA     BYTE      TMR2RLL
*SFR* 00000094H   DATA     WORD      TMR3
*SFR* 00000091H   DATA     BYTE      TMR3CN0
*SFR* 00000095H   DATA     BYTE      TMR3H
*SFR* 00000094H   DATA     BYTE      TMR3L
*SFR* 00000092H   DATA     WORD      TMR3RL
*SFR* 00000093H   DATA     BYTE      TMR3RLH
*SFR* 00000092H   DATA     BYTE      TMR3RLL
*SFR* 00000094H   DATA     WORD      TMR4
*SFR* 00000091H   DATA     BYTE      TMR4CN0
*SFR* 00000095H   DATA     BYTE      TMR4H
*SFR* 00000094H   DATA     BYTE      TMR4L
*SFR* 00000092H   DATA     WORD      TMR4RL
LX51 LINKER/LOCATER V4.66.97.0                                                        01/21/2021  22:11:49  PAGE 17


*SFR* 00000093H   DATA     BYTE      TMR4RLH
*SFR* 00000092H   DATA     BYTE      TMR4RLL
*SFR* 000000CCH   DATA     WORD      TMR5
*SFR* 000000C8H   DATA     BYTE      TMR5CN0
*SFR* 000000C8H.3 DATA     BIT       TMR5CN0_T5SPLIT
*SFR* 000000C8H.0 DATA     BIT       TMR5CN0_T5XCLK
*SFR* 000000C8H.7 DATA     BIT       TMR5CN0_TF5H
*SFR* 000000C8H.6 DATA     BIT       TMR5CN0_TF5L
*SFR* 000000C8H.5 DATA     BIT       TMR5CN0_TF5LEN
*SFR* 000000C8H.2 DATA     BIT       TMR5CN0_TR5
*SFR* 000000CDH   DATA     BYTE      TMR5H
*SFR* 000000CCH   DATA     BYTE      TMR5L
*SFR* 000000CAH   DATA     WORD      TMR5RL
*SFR* 000000CBH   DATA     BYTE      TMR5RLH
*SFR* 000000CAH   DATA     BYTE      TMR5RLL
      02000040H   XDATA    ---       txBuffer
      01001FC0H   CONST    ---       txZero
*SFR* 00000096H   DATA     BYTE      USB0ADR
*SFR* 00000097H   DATA     BYTE      USB0DAT
*SFR* 000000D7H   DATA     BYTE      USB0XCN
      01001E15H   CODE     ---       USB_Ep0GetCount
      01001D53H   CODE     ---       USB_Ep0InPacketReady
      01001DBBH   CODE     ---       USB_Ep0OutPacketReady
      01001D46H   CODE     ---       USB_Ep0SentStall
*DEL*:00000000H   CODE     ---       USB_EpnGetDataError
      01001DC7H   CODE     ---       USB_EpnGetOutPacketReady
      01001D60H   CODE     ---       USB_EpnInGetSentStall
      01001D6DH   CODE     ---       USB_EpnOutGetSentStall
      01001E73H   CODE     ---       USB_EpOutGetCount
      01001DE9H   CODE     ---       USB_GetCommonInts
      01001E0AH   CODE     ---       USB_GetIndex
      01001DF4H   CODE     ---       USB_GetInInts
      01001DFFH   CODE     ---       USB_GetOutInts
      01001D39H   CODE     ---       USB_GetSetupEnd
      01001E78H   CODE     ---       USB_GetSofNumber
*DEL*:00000000H   CODE     ---       USB_IsSuspended
      01000003H   CODE     ---       USBD_AbortAllTransfers
      01001DD3H   CODE     ---       USBD_Connect
*DEL*:00000000H   CODE     ---       USBD_Disconnect
      01001E6EH   CODE     ---       USBD_GetUsbState
      01001E8EH   CODE     ---       USBD_IsSelfPoweredCb
      01001E90H   CODE     ---       USBD_ResetCb
*DEL*:00000000H   CODE     ---       USBD_Stop
*DEL*:00000000H   CODE     ---       USBD_Suspend
      01001821H   CODE     ---       USBDCH9_SetupCmd
      02000097H   XDATA    ---       usbDisplayUpdateData
      02000113H   XDATA    BYTE      usbDisplayUpdateNeeded
      02000095H   XDATA    BYTE      usbDisplayUpdateWhich
      01000DC3H   CODE     ---       usbIrqHandler
      020000F2H   XDATA    ---       usbLampUpdateData
      02000096H   XDATA    BYTE      usbLampUpdateNeeded
      01001E51H   CODE     ---       USBLIB_0_enter_DefaultMode_from_RESET
*SFR* 000000FFH   DATA     BYTE      VDM0CN
      01001E85H   CODE     ---       VREF_0_enter_DefaultMode_from_RESET
*SFR* 000000E1H   DATA     BYTE      XBR0
*SFR* 000000E2H   DATA     BYTE      XBR1
*SFR* 000000E3H   DATA     BYTE      XBR2
*SFR* 000000B1H   DATA     BYTE      XOSC0CN



SYMBOL TABLE OF MODULE:  EFM8UB2_HID_VENDORDEFINED_GRASSVALLEYSMSP32.OMF.CRBUILD (ASSERT)
LX51 LINKER/LOCATER V4.66.97.0                                                        01/21/2021  22:11:49  PAGE 18



      VALUE       REP       CLASS    TYPE      SYMBOL NAME
      ====================================================
      ---         MODULE    ---      ---       ASSERT
      01001E8CH   PUBLIC    CODE     ---       slab_Assert

      01001E8CH   BLOCK     CODE     ---       LVL=0
      01001E8CH   LINE      CODE     ---       #8
      01001E8CH   LINE      CODE     ---       #9
      01001E8CH   LINE      CODE     ---       #10
      ---         BLOCKEND  ---      ---       LVL=0

      ---         MODULE    ---      ---       EFM8_USBD
      00000043H   PUBLIC    IDATA    ---       myUsbDevice
      010019C7H   PUBLIC    CODE     ---       _USBD_SetUsbState
      00000020H.0 PUBLIC    BIT      BIT       ?_USBD_Write?BIT
      00000028H   PUBLIC    DATA     BYTE      ?_USBD_Write?BYTE
      01000F4DH   PUBLIC    CODE     ---       _USBD_Write
      00000020H.1 PUBLIC    BIT      BIT       ?_USBD_Read?BIT
      00000030H   PUBLIC    DATA     BYTE      ?_USBD_Read?BYTE
      0100145FH   PUBLIC    CODE     ---       _USBD_Read
      01001004H   PUBLIC    CODE     ---       _USBD_Init
      01001E6EH   PUBLIC    CODE     ---       USBD_GetUsbState
      01001B60H   PUBLIC    CODE     ---       _USBD_EpIsBusy
      01001DD3H   PUBLIC    CODE     ---       USBD_Connect
      01001711H   PUBLIC    CODE     ---       _USBD_AbortTransfer
      01000003H   PUBLIC    CODE     ---       USBD_AbortAllTransfers
      000000A2H   SFRSYM    DATA     BYTE      SPI0CKR
      00000080H   SFRSYM    DATA     BYTE      P0
      000000D0H.2 SFRSYM    DATA     BIT       PSW_OV
      000000B1H   SFRSYM    DATA     BYTE      XOSC0CN
      00000090H   SFRSYM    DATA     BYTE      P1
      000000A0H   SFRSYM    DATA     BYTE      P2
      000000B0H   SFRSYM    DATA     BYTE      P3
      000000BCH   SFRSYM    DATA     BYTE      ADC0CF
      000000C8H.0 SFRSYM    DATA     BIT       TMR2CN0_T2XCLK
      000000C7H   SFRSYM    DATA     BYTE      P4
      000000C0H.7 SFRSYM    DATA     BIT       SMB0CN0_MASTER
      000000F9H   SFRSYM    DATA     WORD      PCA0
      000000E6H   SFRSYM    DATA     BYTE      EIE1
      000000C0H.7 SFRSYM    DATA     BIT       SMB1CN0_MASTER
      000000C0H.1 SFRSYM    DATA     BIT       SMB0CN0_ACK
      000000D7H   SFRSYM    DATA     BYTE      USB0XCN
      000000E7H   SFRSYM    DATA     BYTE      EIE2
      000000C0H.1 SFRSYM    DATA     BIT       SMB1CN0_ACK
      0000008FH   SFRSYM    DATA     BYTE      PSCTL
      000000E4H   SFRSYM    DATA     BYTE      IT01CF
      000000C8H.0 SFRSYM    DATA     BIT       TMR5CN0_T5XCLK
      000000C0H.6 SFRSYM    DATA     BIT       SMB0CN0_TXMODE
      000000C0H.6 SFRSYM    DATA     BIT       SMB1CN0_TXMODE
      000000BFH   SFRSYM    DATA     BYTE      SFRPAGE
      000000A4H   SFRSYM    DATA     BYTE      P0MDOUT
      000000A5H   SFRSYM    DATA     BYTE      P1MDOUT
      000000E8H.5 SFRSYM    DATA     BIT       ADC0CN0_ADINT
      000000CBH   SFRSYM    DATA     BYTE      TMR2RLH
      000000A6H   SFRSYM    DATA     BYTE      P2MDOUT
      000000A8H   SFRSYM    DATA     BYTE      IE
      00000093H   SFRSYM    DATA     BYTE      TMR3RLH
      000000A7H   SFRSYM    DATA     BYTE      P3MDOUT
      00000093H   SFRSYM    DATA     BYTE      TMR4RLH
      000000AEH   SFRSYM    DATA     BYTE      P4MDOUT
      000000F6H   SFRSYM    DATA     BYTE      EIP1
LX51 LINKER/LOCATER V4.66.97.0                                                        01/21/2021  22:11:49  PAGE 19


      000000CBH   SFRSYM    DATA     BYTE      TMR5RLH
      000000F7H   SFRSYM    DATA     BYTE      EIP2
      00000098H.2 SFRSYM    DATA     BIT       SCON0_RB8
      000000CAH   SFRSYM    DATA     BYTE      TMR2RLL
      000000FCH   SFRSYM    DATA     BYTE      PCA0CPH0
      00000092H   SFRSYM    DATA     BYTE      TMR3RLL
      000000EAH   SFRSYM    DATA     BYTE      PCA0CPH1
      00000098H.3 SFRSYM    DATA     BIT       SCON0_TB8
      000000F0H.0 SFRSYM    DATA     BIT       B_B0
      00000082H   SFRSYM    DATA     WORD      DP
      00000092H   SFRSYM    DATA     BYTE      TMR4RLL
      000000ECH   SFRSYM    DATA     BYTE      PCA0CPH2
      000000F0H.1 SFRSYM    DATA     BIT       B_B1
      000000C3H   SFRSYM    DATA     WORD      ADC0GT
      000000CAH   SFRSYM    DATA     BYTE      TMR5RLL
      000000EEH   SFRSYM    DATA     BYTE      PCA0CPH3
      000000F0H.2 SFRSYM    DATA     BIT       B_B2
      000000FBH   SFRSYM    DATA     BYTE      PCA0CPL0
      000000FEH   SFRSYM    DATA     BYTE      PCA0CPH4
      00000085H   SFRSYM    DATA     BYTE      EMI0CF
      000000F0H.3 SFRSYM    DATA     BIT       B_B3
      000000D9H   SFRSYM    DATA     BYTE      PCA0MD
      000000DAH   SFRSYM    DATA     BYTE      PCA0CPM0
      000000E9H   SFRSYM    DATA     BYTE      PCA0CPL1
      000000F0H.4 SFRSYM    DATA     BIT       B_B4
      000000DBH   SFRSYM    DATA     BYTE      PCA0CPM1
      000000EBH   SFRSYM    DATA     BYTE      PCA0CPL2
      000000F0H.5 SFRSYM    DATA     BIT       B_B5
      000000DCH   SFRSYM    DATA     BYTE      PCA0CPM2
      000000EDH   SFRSYM    DATA     BYTE      PCA0CPL3
      000000B8H   SFRSYM    DATA     BYTE      IP
      000000F0H.6 SFRSYM    DATA     BIT       B_B6
      000000C5H   SFRSYM    DATA     WORD      ADC0LT
      000000DDH   SFRSYM    DATA     BYTE      PCA0CPM3
      000000FDH   SFRSYM    DATA     BYTE      PCA0CPL4
      00000098H.5 SFRSYM    DATA     BIT       SCON0_MCE
      000000F0H.7 SFRSYM    DATA     BIT       B_B7
      000000DEH   SFRSYM    DATA     BYTE      PCA0CPM4
      000000E1H   SFRSYM    DATA     BYTE      XBR0
      000000C1H   SFRSYM    DATA     BYTE      SMB0CF
      000000E2H   SFRSYM    DATA     BYTE      XBR1
      000000C1H   SFRSYM    DATA     BYTE      SMB1CF
      000000AFH   SFRSYM    DATA     BYTE      PFE0CN
      000000AAH   SFRSYM    DATA     BYTE      EMI0CN
      000000C0H.5 SFRSYM    DATA     BIT       SMB0CN0_STA
      000000E3H   SFRSYM    DATA     BYTE      XBR2
      000000C0H.5 SFRSYM    DATA     BIT       SMB1CN0_STA
      000000E0H.0 SFRSYM    DATA     BIT       ACC_ACC0
      000000D1H   SFRSYM    DATA     BYTE      REF0CN
      000000B2H   SFRSYM    DATA     BYTE      HFO0CN
      0000008EH   SFRSYM    DATA     BYTE      CKCON0
      000000E0H.1 SFRSYM    DATA     BIT       ACC_ACC1
      000000E4H   SFRSYM    DATA     BYTE      CKCON1
      000000C8H.2 SFRSYM    DATA     BIT       TMR2CN0_TR2
      000000E0H.2 SFRSYM    DATA     BIT       ACC_ACC2
      000000E0H.3 SFRSYM    DATA     BIT       ACC_ACC3
      00000081H   SFRSYM    DATA     BYTE      SP
      0000009DH   SFRSYM    DATA     BYTE      CMP0MD
      000000E0H.4 SFRSYM    DATA     BIT       ACC_ACC4
      00000086H   SFRSYM    DATA     BYTE      LFO0CN
      00000084H   SFRSYM    DATA     BYTE      EMI0TC
      0000009CH   SFRSYM    DATA     BYTE      CMP1MD
LX51 LINKER/LOCATER V4.66.97.0                                                        01/21/2021  22:11:49  PAGE 20


      000000D8H.0 SFRSYM    DATA     BIT       PCA0CN0_CCF0
      000000E0H.5 SFRSYM    DATA     BIT       ACC_ACC5
      000000D8H.1 SFRSYM    DATA     BIT       PCA0CN0_CCF1
      000000E0H.6 SFRSYM    DATA     BIT       ACC_ACC6
      000000CCH   SFRSYM    DATA     WORD      TMR2
      000000D8H.2 SFRSYM    DATA     BIT       PCA0CN0_CCF2
      000000E0H.7 SFRSYM    DATA     BIT       ACC_ACC7
      00000094H   SFRSYM    DATA     WORD      TMR3
      000000C8H.2 SFRSYM    DATA     BIT       TMR5CN0_TR5
      000000D8H.3 SFRSYM    DATA     BIT       PCA0CN0_CCF3
      00000094H   SFRSYM    DATA     WORD      TMR4
      000000ACH   SFRSYM    DATA     BYTE      SBCON1
      000000D8H.4 SFRSYM    DATA     BIT       PCA0CN0_CCF4
      000000CCH   SFRSYM    DATA     WORD      TMR5
      000000C0H.3 SFRSYM    DATA     BIT       SMB0CN0_ACKRQ
      000000FFH   SFRSYM    DATA     BYTE      VDM0CN
      000000F1H   SFRSYM    DATA     BYTE      P0MDIN
      000000C0H.3 SFRSYM    DATA     BIT       SMB1CN0_ACKRQ
      00000098H.4 SFRSYM    DATA     BIT       SCON0_REN
      000000F2H   SFRSYM    DATA     BYTE      P1MDIN
      000000F3H   SFRSYM    DATA     BYTE      P2MDIN
      000000C0H.4 SFRSYM    DATA     BIT       SMB0CN0_STO
      000000F4H   SFRSYM    DATA     BYTE      P3MDIN
      000000C0H.4 SFRSYM    DATA     BIT       SMB1CN0_STO
      000000B5H   SFRSYM    DATA     BYTE      SBRLH1
      000000F5H   SFRSYM    DATA     BYTE      P4MDIN
      000000D0H.3 SFRSYM    DATA     BIT       PSW_RS0
      000000D8H.7 SFRSYM    DATA     BIT       PCA0CN0_CF
      000000F8H.4 SFRSYM    DATA     BIT       SPI0CN0_RXOVRN
      000000D0H.4 SFRSYM    DATA     BIT       PSW_RS1
      000000B4H   SFRSYM    DATA     BYTE      SBRLL1
      000000E8H.7 SFRSYM    DATA     BIT       ADC0CN0_ADEN
      00000089H   SFRSYM    DATA     BYTE      TMOD
      00000088H   SFRSYM    DATA     BYTE      TCON
      000000D0H.0 SFRSYM    DATA     BIT       PSW_PARITY
      000000A8H.4 SFRSYM    DATA     BIT       IE_ES0
      0000009FH   SFRSYM    DATA     BYTE      CMP0MX
      000000A8H.1 SFRSYM    DATA     BIT       IE_ET0
      0000009EH   SFRSYM    DATA     BYTE      CMP1MX
      000000A8H.3 SFRSYM    DATA     BIT       IE_ET1
      000000D4H   SFRSYM    DATA     BYTE      P0SKIP
      000000C8H.1 SFRSYM    DATA     BIT       TMR2CN0_T2CSS
      000000A8H.5 SFRSYM    DATA     BIT       IE_ET2
      000000D5H   SFRSYM    DATA     BYTE      P1SKIP
      000000D6H   SFRSYM    DATA     BYTE      P2SKIP
      000000E8H   SFRSYM    DATA     BYTE      ADC0CN0
      000000A8H.0 SFRSYM    DATA     BIT       IE_EX0
      000000DFH   SFRSYM    DATA     BYTE      P3SKIP
      000000D8H.6 SFRSYM    DATA     BIT       PCA0CN0_CR
      000000A8H.2 SFRSYM    DATA     BIT       IE_EX1
      00000098H.7 SFRSYM    DATA     BIT       SCON0_SMODE
      000000A9H   SFRSYM    DATA     BYTE      CLKSEL
      000000F8H.0 SFRSYM    DATA     BIT       SPI0CN0_SPIEN
      000000F0H   SFRSYM    DATA     BYTE      B
      000000BEH   SFRSYM    DATA     BYTE      ADC0H
      000000E8H.6 SFRSYM    DATA     BIT       ADC0CN0_ADTM
      000000CAH   SFRSYM    DATA     WORD      TMR2RL
      000000BDH   SFRSYM    DATA     BYTE      ADC0L
      00000092H   SFRSYM    DATA     WORD      TMR3RL
      00000092H   SFRSYM    DATA     WORD      TMR4RL
      000000D8H   SFRSYM    DATA     BYTE      PCA0CN0
      000000E0H   SFRSYM    DATA     BYTE      ACC
LX51 LINKER/LOCATER V4.66.97.0                                                        01/21/2021  22:11:49  PAGE 21


      000000CAH   SFRSYM    DATA     WORD      TMR5RL
      000000FBH   SFRSYM    DATA     WORD      PCA0CP0
      000000E9H   SFRSYM    DATA     WORD      PCA0CP1
      000000EBH   SFRSYM    DATA     WORD      PCA0CP2
      000000EDH   SFRSYM    DATA     WORD      PCA0CP3
      0000008CH   SFRSYM    DATA     BYTE      TH0
      000000B8H.4 SFRSYM    DATA     BIT       IP_PS0
      000000FDH   SFRSYM    DATA     WORD      PCA0CP4
      0000008DH   SFRSYM    DATA     BYTE      TH1
      000000FAH   SFRSYM    DATA     BYTE      PCA0H
      000000B8H.1 SFRSYM    DATA     BIT       IP_PT0
      000000B8H.3 SFRSYM    DATA     BIT       IP_PT1
      000000C0H.2 SFRSYM    DATA     BIT       SMB0CN0_ARBLOST
      000000B8H.5 SFRSYM    DATA     BIT       IP_PT2
      0000008AH   SFRSYM    DATA     BYTE      TL0
      000000F8H.1 SFRSYM    DATA     BIT       SPI0CN0_TXBMT
      000000C0H.2 SFRSYM    DATA     BIT       SMB1CN0_ARBLOST
      000000D0H.5 SFRSYM    DATA     BIT       PSW_F0
      000000A8H.6 SFRSYM    DATA     BIT       IE_ESPI0
      0000008BH   SFRSYM    DATA     BYTE      TL1
      000000F9H   SFRSYM    DATA     BYTE      PCA0L
      000000C0H.0 SFRSYM    DATA     BIT       SMB0CN0_SI
      000000D0H.1 SFRSYM    DATA     BIT       PSW_F1
      00000080H.0 SFRSYM    DATA     BIT       P0_B0
      000000B8H.0 SFRSYM    DATA     BIT       IP_PX0
      000000C9H   SFRSYM    DATA     BYTE      REG01CN
      000000C0H.0 SFRSYM    DATA     BIT       SMB1CN0_SI
      00000090H.0 SFRSYM    DATA     BIT       P1_B0
      00000080H.1 SFRSYM    DATA     BIT       P0_B1
      000000B8H.2 SFRSYM    DATA     BIT       IP_PX1
      0000009BH   SFRSYM    DATA     BYTE      CMP0CN0
      00000088H.1 SFRSYM    DATA     BIT       TCON_IE0
      000000A0H.0 SFRSYM    DATA     BIT       P2_B0
      00000090H.1 SFRSYM    DATA     BIT       P1_B1
      00000080H.2 SFRSYM    DATA     BIT       P0_B2
      0000009AH   SFRSYM    DATA     BYTE      CMP1CN0
      00000088H.3 SFRSYM    DATA     BIT       TCON_IE1
      000000B0H.0 SFRSYM    DATA     BIT       P3_B0
      000000A0H.1 SFRSYM    DATA     BIT       P2_B1
      00000090H.2 SFRSYM    DATA     BIT       P1_B2
      00000080H.3 SFRSYM    DATA     BIT       P0_B3
      000000C0H   SFRSYM    DATA     BYTE      SMB0CN0
      000000B0H.1 SFRSYM    DATA     BIT       P3_B1
      000000A0H.2 SFRSYM    DATA     BIT       P2_B2
      00000090H.3 SFRSYM    DATA     BIT       P1_B3
      00000080H.4 SFRSYM    DATA     BIT       P0_B4
      000000C0H   SFRSYM    DATA     BYTE      SMB1CN0
      000000B0H.2 SFRSYM    DATA     BIT       P3_B2
      000000A0H.3 SFRSYM    DATA     BIT       P2_B3
      00000090H.4 SFRSYM    DATA     BIT       P1_B4
      00000080H.5 SFRSYM    DATA     BIT       P0_B5
      000000B0H.3 SFRSYM    DATA     BIT       P3_B3
      000000A0H.4 SFRSYM    DATA     BIT       P2_B4
      00000090H.5 SFRSYM    DATA     BIT       P1_B5
      00000080H.6 SFRSYM    DATA     BIT       P0_B6
      000000B0H.4 SFRSYM    DATA     BIT       P3_B4
      000000A0H.5 SFRSYM    DATA     BIT       P2_B5
      00000090H.6 SFRSYM    DATA     BIT       P1_B6
      00000080H.7 SFRSYM    DATA     BIT       P0_B7
      000000B0H.5 SFRSYM    DATA     BIT       P3_B5
      000000A0H.6 SFRSYM    DATA     BIT       P2_B6
      00000090H.7 SFRSYM    DATA     BIT       P1_B7
LX51 LINKER/LOCATER V4.66.97.0                                                        01/21/2021  22:11:49  PAGE 22


      000000B0H.6 SFRSYM    DATA     BIT       P3_B6
      000000A0H.7 SFRSYM    DATA     BIT       P2_B7
      000000B0H.7 SFRSYM    DATA     BIT       P3_B7
      00000083H   SFRSYM    DATA     BYTE      DPH
      000000C4H   SFRSYM    DATA     BYTE      ADC0GTH
      000000C8H.7 SFRSYM    DATA     BIT       TMR2CN0_TF2H
      000000C8H.3 SFRSYM    DATA     BIT       TMR2CN0_T2SPLIT
      000000D0H.6 SFRSYM    DATA     BIT       PSW_AC
      000000F8H   SFRSYM    DATA     BYTE      SPI0CN0
      000000B3H   SFRSYM    DATA     BYTE      HFO0CAL
      00000088H.5 SFRSYM    DATA     BIT       TCON_TF0
      00000098H.0 SFRSYM    DATA     BIT       SCON0_RI
      00000082H   SFRSYM    DATA     BYTE      DPL
      00000088H.7 SFRSYM    DATA     BIT       TCON_TF1
      00000099H   SFRSYM    DATA     BYTE      SBUF0
      00000087H   SFRSYM    DATA     BYTE      PCON0
      000000C3H   SFRSYM    DATA     BYTE      ADC0GTL
      000000C8H.6 SFRSYM    DATA     BIT       TMR2CN0_TF2L
      00000098H.1 SFRSYM    DATA     BIT       SCON0_TI
      000000E8H.0 SFRSYM    DATA     BIT       ADC0CN0_ADCM0
      000000D3H   SFRSYM    DATA     BYTE      SBUF1
      000000C6H   SFRSYM    DATA     BYTE      ADC0LTH
      00000088H.0 SFRSYM    DATA     BIT       TCON_IT0
      000000E8H.1 SFRSYM    DATA     BIT       ADC0CN0_ADCM1
      000000EFH   SFRSYM    DATA     BYTE      RSTSRC
      000000C8H.7 SFRSYM    DATA     BIT       TMR5CN0_TF5H
      000000C8H.3 SFRSYM    DATA     BIT       TMR5CN0_T5SPLIT
      00000088H.2 SFRSYM    DATA     BIT       TCON_IT1
      000000E8H.2 SFRSYM    DATA     BIT       ADC0CN0_ADCM2
      00000098H   SFRSYM    DATA     BYTE      SCON0
      000000E8H.3 SFRSYM    DATA     BIT       ADC0CN0_ADWINT
      000000B4H   SFRSYM    DATA     WORD      SBRL1
      000000E5H   SFRSYM    DATA     BYTE      SMOD1
      000000D2H   SFRSYM    DATA     BYTE      SCON1
      000000BAH   SFRSYM    DATA     BYTE      AMX0N
      000000E8H.4 SFRSYM    DATA     BIT       ADC0CN0_ADBUSY
      000000CEH   SFRSYM    DATA     BYTE      SMB0ADM
      000000C5H   SFRSYM    DATA     BYTE      ADC0LTL
      000000F8H.5 SFRSYM    DATA     BIT       SPI0CN0_MODF
      000000B8H.6 SFRSYM    DATA     BIT       IP_PSPI0
      000000CEH   SFRSYM    DATA     BYTE      SMB1ADM
      000000BBH   SFRSYM    DATA     BYTE      AMX0P
      000000C8H.6 SFRSYM    DATA     BIT       TMR5CN0_TF5L
      000000C8H   SFRSYM    DATA     BYTE      TMR2CN0
      00000091H   SFRSYM    DATA     BYTE      TMR3CN0
      00000091H   SFRSYM    DATA     BYTE      TMR4CN0
      000000C8H   SFRSYM    DATA     BYTE      TMR5CN0
      000000CFH   SFRSYM    DATA     BYTE      SMB0ADR
      00000088H.4 SFRSYM    DATA     BIT       TCON_TR0
      000000CFH   SFRSYM    DATA     BYTE      SMB1ADR
      000000C8H.4 SFRSYM    DATA     BIT       TMR2CN0_TF2CEN
      00000088H.6 SFRSYM    DATA     BIT       TCON_TR1
      000000C2H   SFRSYM    DATA     BYTE      SMB0DAT
      000000CDH   SFRSYM    DATA     BYTE      TMR2H
      000000A1H   SFRSYM    DATA     BYTE      SPI0CFG
      000000C2H   SFRSYM    DATA     BYTE      SMB1DAT
      00000095H   SFRSYM    DATA     BYTE      TMR3H
      00000095H   SFRSYM    DATA     BYTE      TMR4H
      000000CDH   SFRSYM    DATA     BYTE      TMR5H
      000000CCH   SFRSYM    DATA     BYTE      TMR2L
      000000F8H.7 SFRSYM    DATA     BIT       SPI0CN0_SPIF
      00000096H   SFRSYM    DATA     BYTE      USB0ADR
LX51 LINKER/LOCATER V4.66.97.0                                                        01/21/2021  22:11:49  PAGE 23


      00000094H   SFRSYM    DATA     BYTE      TMR3L
      000000A8H.7 SFRSYM    DATA     BIT       IE_EA
      00000094H   SFRSYM    DATA     BYTE      TMR4L
      00000097H   SFRSYM    DATA     BYTE      USB0DAT
      000000CCH   SFRSYM    DATA     BYTE      TMR5L
      000000B6H   SFRSYM    DATA     BYTE      FLSCL
      000000C8H.5 SFRSYM    DATA     BIT       TMR2CN0_TF2LEN
      000000F8H.6 SFRSYM    DATA     BIT       SPI0CN0_WCOL
      000000F8H.2 SFRSYM    DATA     BIT       SPI0CN0_NSSMD0
      000000D0H.7 SFRSYM    DATA     BIT       PSW_CY
      000000A3H   SFRSYM    DATA     BYTE      SPI0DAT
      000000F8H.3 SFRSYM    DATA     BIT       SPI0CN0_NSSMD1
      000000BDH   SFRSYM    DATA     WORD      ADC0
      000000B9H   SFRSYM    DATA     BYTE      SMBTC
      000000D0H   SFRSYM    DATA     BYTE      PSW
      000000C8H.5 SFRSYM    DATA     BIT       TMR5CN0_TF5LEN
      000000B7H   SFRSYM    DATA     BYTE      FLKEY

      01000003H   BLOCK     CODE     ---       LVL=0
      01000003H   BLOCK     CODE     NEAR LAB  LVL=1
      00000029H   SYMBOL    DATA     BYTE      i
      00000020H.0 SYMBOL    BIT      BIT       usbIntsEnabled
      ---         BLOCKEND  ---      ---       LVL=1
      01000003H   LINE      CODE     ---       #48
      01000003H   LINE      CODE     ---       #49
      01000003H   LINE      CODE     ---       #54
      0100000CH   LINE      CODE     ---       #57
      0100001AH   LINE      CODE     ---       #58
      0100001AH   LINE      CODE     ---       #59
      0100001FH   LINE      CODE     ---       #60
      01000023H   LINE      CODE     ---       #62
      01000029H   LINE      CODE     ---       #64
      ---         BLOCKEND  ---      ---       LVL=0

      01001711H   BLOCK     CODE     ---       LVL=0
      0000002BH   SYMBOL    DATA     BYTE      epAddr
      01001713H   BLOCK     CODE     NEAR LAB  LVL=1
      0000002CH   SYMBOL    DATA     ---       ep
      0000002DH   SYMBOL    DATA     CHAR      retVal
      00000020H.1 SYMBOL    BIT      BIT       usbIntsEnabled
      ---         BLOCKEND  ---      ---       LVL=1
      01001711H   LINE      CODE     ---       #66
      01001713H   LINE      CODE     ---       #67
      01001713H   LINE      CODE     ---       #69
      01001716H   LINE      CODE     ---       #75
      01001722H   LINE      CODE     ---       #76
      01001722H   LINE      CODE     ---       #77
      01001725H   LINE      CODE     ---       #78
      01001728H   LINE      CODE     ---       #79
      0100172AH   LINE      CODE     ---       #81
      0100172AH   LINE      CODE     ---       #82
      01001733H   LINE      CODE     ---       #83
      0100173EH   LINE      CODE     ---       #87
      01001748H   LINE      CODE     ---       #88
      01001748H   LINE      CODE     ---       #89
      01001751H   LINE      CODE     ---       #90
      01001751H   LINE      CODE     ---       #92
      01001751H   LINE      CODE     ---       #93
      01001756H   LINE      CODE     ---       #94
      01001758H   LINE      CODE     ---       #107
      01001758H   LINE      CODE     ---       #108
      0100175DH   LINE      CODE     ---       #109
LX51 LINKER/LOCATER V4.66.97.0                                                        01/21/2021  22:11:49  PAGE 24


      0100175DH   LINE      CODE     ---       #121
      0100175DH   LINE      CODE     ---       #124
      01001764H   LINE      CODE     ---       #125
      0100176BH   LINE      CODE     ---       #126
      0100176BH   LINE      CODE     ---       #127
      0100176BH   LINE      CODE     ---       #129
      01001771H   LINE      CODE     ---       #132
      01001773H   LINE      CODE     ---       #133
      ---         BLOCKEND  ---      ---       LVL=0

      01001DD3H   BLOCK     CODE     ---       LVL=0
      01001DD3H   LINE      CODE     ---       #135
      01001DD3H   LINE      CODE     ---       #136
      01001DD3H   LINE      CODE     ---       #138
      01001DD7H   LINE      CODE     ---       #139
      01001DDAH   LINE      CODE     ---       #140
      01001DDDH   LINE      CODE     ---       #142
      ---         BLOCKEND  ---      ---       LVL=0

      01001B60H   BLOCK     CODE     ---       LVL=0
      00000028H   SYMBOL    DATA     BYTE      epAddr
      01001B62H   BLOCK     CODE     NEAR LAB  LVL=1
      00000000H   SYMBOL    DATA     ---       ep
      ---         BLOCKEND  ---      ---       LVL=1
      01001B60H   LINE      CODE     ---       #151
      01001B62H   LINE      CODE     ---       #152
      01001B62H   LINE      CODE     ---       #156
      01001B6CH   LINE      CODE     ---       #157
      01001B6CH   LINE      CODE     ---       #158
      01001B6FH   LINE      CODE     ---       #159
      01001B71H   LINE      CODE     ---       #160
      01001B71H   LINE      CODE     ---       #162
      01001B7AH   LINE      CODE     ---       #164
      01001B84H   LINE      CODE     ---       #165
      01001B84H   LINE      CODE     ---       #166
      01001B85H   LINE      CODE     ---       #167
      01001B85H   LINE      CODE     ---       #169
      01001B85H   LINE      CODE     ---       #170
      ---         BLOCKEND  ---      ---       LVL=0

      01001E6EH   BLOCK     CODE     ---       LVL=0
      01001E6EH   LINE      CODE     ---       #172
      01001E6EH   LINE      CODE     ---       #173
      01001E6EH   LINE      CODE     ---       #174
      01001E72H   LINE      CODE     ---       #175
      ---         BLOCKEND  ---      ---       LVL=0

      01001004H   BLOCK     CODE     ---       LVL=0
      0000003FH   SYMBOL    DATA     ---       p
      0100100AH   BLOCK     CODE     NEAR LAB  LVL=1
      00000007H   SYMBOL    DATA     BYTE      i
      ---         BLOCKEND  ---      ---       LVL=1
      01001004H   LINE      CODE     ---       #177
      0100100AH   LINE      CODE     ---       #178
      0100100AH   LINE      CODE     ---       #182
      0100100DH   LINE      CODE     ---       #187
      01001010H   LINE      CODE     ---       #191
      0100101CH   LINE      CODE     ---       #192
      0100101CH   LINE      CODE     ---       #193
      01001022H   LINE      CODE     ---       #194
      01001025H   LINE      CODE     ---       #197
      01001038H   LINE      CODE     ---       #198
LX51 LINKER/LOCATER V4.66.97.0                                                        01/21/2021  22:11:49  PAGE 25


      0100104EH   LINE      CODE     ---       #199
      01001064H   LINE      CODE     ---       #200
      01001073H   LINE      CODE     ---       #204
      01001076H   LINE      CODE     ---       #205
      01001079H   LINE      CODE     ---       #218
      01001084H   LINE      CODE     ---       #219
      0100108FH   LINE      CODE     ---       #220
      01001092H   LINE      CODE     ---       #227
      0100109AH   LINE      CODE     ---       #228
      0100109AH   LINE      CODE     ---       #229
      0100109CH   LINE      CODE     ---       #230
      0100109EH   LINE      CODE     ---       #232
      0100109EH   LINE      CODE     ---       #233
      010010A0H   LINE      CODE     ---       #234
      010010A0H   LINE      CODE     ---       #239
      010010A3H   LINE      CODE     ---       #243
      010010AEH   LINE      CODE     ---       #245
      010010B0H   LINE      CODE     ---       #246
      ---         BLOCKEND  ---      ---       LVL=0

      0100145FH   BLOCK     CODE     ---       LVL=0
      00000030H   SYMBOL    DATA     BYTE      epAddr
      00000031H   SYMBOL    DATA     ---       dat
      00000034H   SYMBOL    DATA     WORD      byteCount
      00000020H.1 SYMBOL    BIT      BIT       callback
      01001467H   BLOCK     CODE     NEAR LAB  LVL=1
      00000020H.2 SYMBOL    BIT      BIT       usbIntsEnabled
      00000007H   SYMBOL    DATA     ---       ep
      ---         BLOCKEND  ---      ---       LVL=1
      0100145FH   LINE      CODE     ---       #248
      01001467H   LINE      CODE     ---       #252
      01001467H   LINE      CODE     ---       #259
      01001471H   LINE      CODE     ---       #260
      01001471H   LINE      CODE     ---       #261
      01001471H   LINE      CODE     ---       #263
      01001471H   LINE      CODE     ---       #271
      01001471H   LINE      CODE     ---       #273
      01001471H   LINE      CODE     ---       #281
      01001471H   LINE      CODE     ---       #282
      01001474H   LINE      CODE     ---       #283
      01001477H   LINE      CODE     ---       #284
      01001477H   LINE      CODE     ---       #287
      01001482H   LINE      CODE     ---       #288
      01001482H   LINE      CODE     ---       #289
      01001485H   LINE      CODE     ---       #290
      01001485H   LINE      CODE     ---       #292
      01001490H   LINE      CODE     ---       #296
      0100149AH   LINE      CODE     ---       #297
      0100149AH   LINE      CODE     ---       #298
      010014A1H   LINE      CODE     ---       #299
      010014A1H   LINE      CODE     ---       #300
      010014A3H   LINE      CODE     ---       #301
      010014A3H   LINE      CODE     ---       #303
      010014A3H   LINE      CODE     ---       #304
      010014A4H   LINE      CODE     ---       #305
      010014A4H   LINE      CODE     ---       #306
      010014A4H   LINE      CODE     ---       #308
      010014ADH   LINE      CODE     ---       #310
      010014BBH   LINE      CODE     ---       #311
      010014C4H   LINE      CODE     ---       #312
      010014CAH   LINE      CODE     ---       #313
      010014DAH   LINE      CODE     ---       #314
LX51 LINKER/LOCATER V4.66.97.0                                                        01/21/2021  22:11:49  PAGE 26


      010014DDH   LINE      CODE     ---       #324
      010014E3H   LINE      CODE     ---       #327
      010014E5H   LINE      CODE     ---       #328
      ---         BLOCKEND  ---      ---       LVL=0
      00000007H   SYMBOL    DATA     BYTE      i

      01000F4DH   BLOCK     CODE     ---       LVL=0
      00000028H   SYMBOL    DATA     BYTE      epAddr
      00000029H   SYMBOL    DATA     ---       dat
      0000002CH   SYMBOL    DATA     WORD      byteCount
      00000020H.0 SYMBOL    BIT      BIT       callback
      01000F55H   BLOCK     CODE     NEAR LAB  LVL=1
      00000020H.1 SYMBOL    BIT      BIT       usbIntsEnabled
      00000007H   SYMBOL    DATA     ---       ep
      ---         BLOCKEND  ---      ---       LVL=1
      01000F4DH   LINE      CODE     ---       #615
      01000F55H   LINE      CODE     ---       #619
      01000F55H   LINE      CODE     ---       #626
      01000F5EH   LINE      CODE     ---       #627
      01000F5EH   LINE      CODE     ---       #628
      01000F5EH   LINE      CODE     ---       #630
      01000F5EH   LINE      CODE     ---       #638
      01000F5EH   LINE      CODE     ---       #640
      01000F5EH   LINE      CODE     ---       #648
      01000F5EH   LINE      CODE     ---       #649
      01000F61H   LINE      CODE     ---       #650
      01000F64H   LINE      CODE     ---       #651
      01000F64H   LINE      CODE     ---       #655
      01000F6FH   LINE      CODE     ---       #656
      01000F6FH   LINE      CODE     ---       #657
      01000F72H   LINE      CODE     ---       #658
      01000F72H   LINE      CODE     ---       #660
      01000F7DH   LINE      CODE     ---       #664
      01000F87H   LINE      CODE     ---       #665
      01000F87H   LINE      CODE     ---       #666
      01000F8EH   LINE      CODE     ---       #667
      01000F8EH   LINE      CODE     ---       #668
      01000F90H   LINE      CODE     ---       #669
      01000F90H   LINE      CODE     ---       #671
      01000F90H   LINE      CODE     ---       #672
      01000F91H   LINE      CODE     ---       #673
      01000F91H   LINE      CODE     ---       #674
      01000F91H   LINE      CODE     ---       #676
      01000F9AH   LINE      CODE     ---       #678
      01000FA8H   LINE      CODE     ---       #679
      01000FB1H   LINE      CODE     ---       #680
      01000FB7H   LINE      CODE     ---       #681
      01000FC7H   LINE      CODE     ---       #683
      01000FCFH   LINE      CODE     ---       #684
      01000FCFH   LINE      CODE     ---       #687
      01000FCFH   LINE      CODE     ---       #688
      01000FD5H   LINE      CODE     ---       #689
      01000FD7H   LINE      CODE     ---       #694
      01000FD7H   LINE      CODE     ---       #695
      01000FFBH   LINE      CODE     ---       #699
      01000FFBH   LINE      CODE     ---       #722
      01000FFBH   LINE      CODE     ---       #724
      01001001H   LINE      CODE     ---       #727
      01001003H   LINE      CODE     ---       #728
      ---         BLOCKEND  ---      ---       LVL=0

      010019C7H   BLOCK     CODE     ---       LVL=0
LX51 LINKER/LOCATER V4.66.97.0                                                        01/21/2021  22:11:49  PAGE 27


      00000027H   SYMBOL    DATA     BYTE      newState
      010019C9H   BLOCK     CODE     NEAR LAB  LVL=1
      00000028H   SYMBOL    DATA     BYTE      currentState
      ---         BLOCKEND  ---      ---       LVL=1
      010019C7H   LINE      CODE     ---       #733
      010019C9H   LINE      CODE     ---       #734
      010019C9H   LINE      CODE     ---       #740
      010019CEH   LINE      CODE     ---       #744
      010019E0H   LINE      CODE     ---       #746
      010019E0H   LINE      CODE     ---       #747
      010019E3H   LINE      CODE     ---       #755
      010019E3H   LINE      CODE     ---       #756
      010019E9H   LINE      CODE     ---       #757
      010019E9H   LINE      CODE     ---       #758
      010019EDH   LINE      CODE     ---       #759
      010019EDH   LINE      CODE     ---       #761
      010019F1H   LINE      CODE     ---       #764
      010019F7H   LINE      CODE     ---       #765
      010019F7H   LINE      CODE     ---       #766
      010019FEH   LINE      CODE     ---       #767
      010019FEH   LINE      CODE     ---       #769
      ---         BLOCKEND  ---      ---       LVL=0

      ---         MODULE    ---      ---       EFM8_USBDCH9
      01001FC0H   PUBLIC    CONST    ---       txZero
      01001821H   PUBLIC    CODE     ---       USBDCH9_SetupCmd
      000000A2H   SFRSYM    DATA     BYTE      SPI0CKR
      00000080H   SFRSYM    DATA     BYTE      P0
      000000D0H.2 SFRSYM    DATA     BIT       PSW_OV
      000000B1H   SFRSYM    DATA     BYTE      XOSC0CN
      00000090H   SFRSYM    DATA     BYTE      P1
      000000A0H   SFRSYM    DATA     BYTE      P2
      000000B0H   SFRSYM    DATA     BYTE      P3
      000000BCH   SFRSYM    DATA     BYTE      ADC0CF
      000000C8H.0 SFRSYM    DATA     BIT       TMR2CN0_T2XCLK
      000000C7H   SFRSYM    DATA     BYTE      P4
      000000C0H.7 SFRSYM    DATA     BIT       SMB0CN0_MASTER
      000000F9H   SFRSYM    DATA     WORD      PCA0
      000000E6H   SFRSYM    DATA     BYTE      EIE1
      000000C0H.7 SFRSYM    DATA     BIT       SMB1CN0_MASTER
      000000C0H.1 SFRSYM    DATA     BIT       SMB0CN0_ACK
      000000D7H   SFRSYM    DATA     BYTE      USB0XCN
      000000E7H   SFRSYM    DATA     BYTE      EIE2
      000000C0H.1 SFRSYM    DATA     BIT       SMB1CN0_ACK
      0000008FH   SFRSYM    DATA     BYTE      PSCTL
      000000E4H   SFRSYM    DATA     BYTE      IT01CF
      000000C8H.0 SFRSYM    DATA     BIT       TMR5CN0_T5XCLK
      000000C0H.6 SFRSYM    DATA     BIT       SMB0CN0_TXMODE
      000000C0H.6 SFRSYM    DATA     BIT       SMB1CN0_TXMODE
      000000BFH   SFRSYM    DATA     BYTE      SFRPAGE
      000000A4H   SFRSYM    DATA     BYTE      P0MDOUT
      000000A5H   SFRSYM    DATA     BYTE      P1MDOUT
      000000E8H.5 SFRSYM    DATA     BIT       ADC0CN0_ADINT
      000000CBH   SFRSYM    DATA     BYTE      TMR2RLH
      000000A6H   SFRSYM    DATA     BYTE      P2MDOUT
      000000A8H   SFRSYM    DATA     BYTE      IE
      00000093H   SFRSYM    DATA     BYTE      TMR3RLH
      000000A7H   SFRSYM    DATA     BYTE      P3MDOUT
      00000093H   SFRSYM    DATA     BYTE      TMR4RLH
      000000AEH   SFRSYM    DATA     BYTE      P4MDOUT
      000000F6H   SFRSYM    DATA     BYTE      EIP1
      000000CBH   SFRSYM    DATA     BYTE      TMR5RLH
LX51 LINKER/LOCATER V4.66.97.0                                                        01/21/2021  22:11:49  PAGE 28


      000000F7H   SFRSYM    DATA     BYTE      EIP2
      00000098H.2 SFRSYM    DATA     BIT       SCON0_RB8
      000000CAH   SFRSYM    DATA     BYTE      TMR2RLL
      000000FCH   SFRSYM    DATA     BYTE      PCA0CPH0
      00000092H   SFRSYM    DATA     BYTE      TMR3RLL
      000000EAH   SFRSYM    DATA     BYTE      PCA0CPH1
      00000098H.3 SFRSYM    DATA     BIT       SCON0_TB8
      000000F0H.0 SFRSYM    DATA     BIT       B_B0
      00000082H   SFRSYM    DATA     WORD      DP
      00000092H   SFRSYM    DATA     BYTE      TMR4RLL
      000000ECH   SFRSYM    DATA     BYTE      PCA0CPH2
      000000F0H.1 SFRSYM    DATA     BIT       B_B1
      000000C3H   SFRSYM    DATA     WORD      ADC0GT
      000000CAH   SFRSYM    DATA     BYTE      TMR5RLL
      000000EEH   SFRSYM    DATA     BYTE      PCA0CPH3
      000000F0H.2 SFRSYM    DATA     BIT       B_B2
      000000FBH   SFRSYM    DATA     BYTE      PCA0CPL0
      000000FEH   SFRSYM    DATA     BYTE      PCA0CPH4
      00000085H   SFRSYM    DATA     BYTE      EMI0CF
      000000F0H.3 SFRSYM    DATA     BIT       B_B3
      000000D9H   SFRSYM    DATA     BYTE      PCA0MD
      000000DAH   SFRSYM    DATA     BYTE      PCA0CPM0
      000000E9H   SFRSYM    DATA     BYTE      PCA0CPL1
      000000F0H.4 SFRSYM    DATA     BIT       B_B4
      000000DBH   SFRSYM    DATA     BYTE      PCA0CPM1
      000000EBH   SFRSYM    DATA     BYTE      PCA0CPL2
      000000F0H.5 SFRSYM    DATA     BIT       B_B5
      000000DCH   SFRSYM    DATA     BYTE      PCA0CPM2
      000000EDH   SFRSYM    DATA     BYTE      PCA0CPL3
      000000B8H   SFRSYM    DATA     BYTE      IP
      000000F0H.6 SFRSYM    DATA     BIT       B_B6
      000000C5H   SFRSYM    DATA     WORD      ADC0LT
      000000DDH   SFRSYM    DATA     BYTE      PCA0CPM3
      000000FDH   SFRSYM    DATA     BYTE      PCA0CPL4
      00000098H.5 SFRSYM    DATA     BIT       SCON0_MCE
      000000F0H.7 SFRSYM    DATA     BIT       B_B7
      000000DEH   SFRSYM    DATA     BYTE      PCA0CPM4
      000000E1H   SFRSYM    DATA     BYTE      XBR0
      000000C1H   SFRSYM    DATA     BYTE      SMB0CF
      000000E2H   SFRSYM    DATA     BYTE      XBR1
      000000C1H   SFRSYM    DATA     BYTE      SMB1CF
      000000AFH   SFRSYM    DATA     BYTE      PFE0CN
      000000AAH   SFRSYM    DATA     BYTE      EMI0CN
      000000C0H.5 SFRSYM    DATA     BIT       SMB0CN0_STA
      000000E3H   SFRSYM    DATA     BYTE      XBR2
      000000C0H.5 SFRSYM    DATA     BIT       SMB1CN0_STA
      000000E0H.0 SFRSYM    DATA     BIT       ACC_ACC0
      000000D1H   SFRSYM    DATA     BYTE      REF0CN
      000000B2H   SFRSYM    DATA     BYTE      HFO0CN
      0000008EH   SFRSYM    DATA     BYTE      CKCON0
      000000E0H.1 SFRSYM    DATA     BIT       ACC_ACC1
      000000E4H   SFRSYM    DATA     BYTE      CKCON1
      000000C8H.2 SFRSYM    DATA     BIT       TMR2CN0_TR2
      000000E0H.2 SFRSYM    DATA     BIT       ACC_ACC2
      000000E0H.3 SFRSYM    DATA     BIT       ACC_ACC3
      00000081H   SFRSYM    DATA     BYTE      SP
      0000009DH   SFRSYM    DATA     BYTE      CMP0MD
      000000E0H.4 SFRSYM    DATA     BIT       ACC_ACC4
      00000086H   SFRSYM    DATA     BYTE      LFO0CN
      00000084H   SFRSYM    DATA     BYTE      EMI0TC
      0000009CH   SFRSYM    DATA     BYTE      CMP1MD
      000000D8H.0 SFRSYM    DATA     BIT       PCA0CN0_CCF0
LX51 LINKER/LOCATER V4.66.97.0                                                        01/21/2021  22:11:49  PAGE 29


      000000E0H.5 SFRSYM    DATA     BIT       ACC_ACC5
      000000D8H.1 SFRSYM    DATA     BIT       PCA0CN0_CCF1
      000000E0H.6 SFRSYM    DATA     BIT       ACC_ACC6
      000000CCH   SFRSYM    DATA     WORD      TMR2
      000000D8H.2 SFRSYM    DATA     BIT       PCA0CN0_CCF2
      000000E0H.7 SFRSYM    DATA     BIT       ACC_ACC7
      00000094H   SFRSYM    DATA     WORD      TMR3
      000000C8H.2 SFRSYM    DATA     BIT       TMR5CN0_TR5
      000000D8H.3 SFRSYM    DATA     BIT       PCA0CN0_CCF3
      00000094H   SFRSYM    DATA     WORD      TMR4
      000000ACH   SFRSYM    DATA     BYTE      SBCON1
      000000D8H.4 SFRSYM    DATA     BIT       PCA0CN0_CCF4
      000000CCH   SFRSYM    DATA     WORD      TMR5
      000000C0H.3 SFRSYM    DATA     BIT       SMB0CN0_ACKRQ
      000000FFH   SFRSYM    DATA     BYTE      VDM0CN
      000000F1H   SFRSYM    DATA     BYTE      P0MDIN
      000000C0H.3 SFRSYM    DATA     BIT       SMB1CN0_ACKRQ
      00000098H.4 SFRSYM    DATA     BIT       SCON0_REN
      000000F2H   SFRSYM    DATA     BYTE      P1MDIN
      000000F3H   SFRSYM    DATA     BYTE      P2MDIN
      000000C0H.4 SFRSYM    DATA     BIT       SMB0CN0_STO
      000000F4H   SFRSYM    DATA     BYTE      P3MDIN
      000000C0H.4 SFRSYM    DATA     BIT       SMB1CN0_STO
      000000B5H   SFRSYM    DATA     BYTE      SBRLH1
      000000F5H   SFRSYM    DATA     BYTE      P4MDIN
      000000D0H.3 SFRSYM    DATA     BIT       PSW_RS0
      000000D8H.7 SFRSYM    DATA     BIT       PCA0CN0_CF
      000000F8H.4 SFRSYM    DATA     BIT       SPI0CN0_RXOVRN
      000000D0H.4 SFRSYM    DATA     BIT       PSW_RS1
      000000B4H   SFRSYM    DATA     BYTE      SBRLL1
      000000E8H.7 SFRSYM    DATA     BIT       ADC0CN0_ADEN
      00000089H   SFRSYM    DATA     BYTE      TMOD
      00000088H   SFRSYM    DATA     BYTE      TCON
      000000D0H.0 SFRSYM    DATA     BIT       PSW_PARITY
      000000A8H.4 SFRSYM    DATA     BIT       IE_ES0
      0000009FH   SFRSYM    DATA     BYTE      CMP0MX
      000000A8H.1 SFRSYM    DATA     BIT       IE_ET0
      0000009EH   SFRSYM    DATA     BYTE      CMP1MX
      000000A8H.3 SFRSYM    DATA     BIT       IE_ET1
      000000D4H   SFRSYM    DATA     BYTE      P0SKIP
      000000C8H.1 SFRSYM    DATA     BIT       TMR2CN0_T2CSS
      000000A8H.5 SFRSYM    DATA     BIT       IE_ET2
      000000D5H   SFRSYM    DATA     BYTE      P1SKIP
      000000D6H   SFRSYM    DATA     BYTE      P2SKIP
      000000E8H   SFRSYM    DATA     BYTE      ADC0CN0
      000000A8H.0 SFRSYM    DATA     BIT       IE_EX0
      000000DFH   SFRSYM    DATA     BYTE      P3SKIP
      000000D8H.6 SFRSYM    DATA     BIT       PCA0CN0_CR
      000000A8H.2 SFRSYM    DATA     BIT       IE_EX1
      00000098H.7 SFRSYM    DATA     BIT       SCON0_SMODE
      000000A9H   SFRSYM    DATA     BYTE      CLKSEL
      000000F8H.0 SFRSYM    DATA     BIT       SPI0CN0_SPIEN
      000000F0H   SFRSYM    DATA     BYTE      B
      000000BEH   SFRSYM    DATA     BYTE      ADC0H
      000000E8H.6 SFRSYM    DATA     BIT       ADC0CN0_ADTM
      000000CAH   SFRSYM    DATA     WORD      TMR2RL
      000000BDH   SFRSYM    DATA     BYTE      ADC0L
      00000092H   SFRSYM    DATA     WORD      TMR3RL
      00000092H   SFRSYM    DATA     WORD      TMR4RL
      000000D8H   SFRSYM    DATA     BYTE      PCA0CN0
      000000E0H   SFRSYM    DATA     BYTE      ACC
      000000CAH   SFRSYM    DATA     WORD      TMR5RL
LX51 LINKER/LOCATER V4.66.97.0                                                        01/21/2021  22:11:49  PAGE 30


      000000FBH   SFRSYM    DATA     WORD      PCA0CP0
      000000E9H   SFRSYM    DATA     WORD      PCA0CP1
      000000EBH   SFRSYM    DATA     WORD      PCA0CP2
      000000EDH   SFRSYM    DATA     WORD      PCA0CP3
      0000008CH   SFRSYM    DATA     BYTE      TH0
      000000B8H.4 SFRSYM    DATA     BIT       IP_PS0
      000000FDH   SFRSYM    DATA     WORD      PCA0CP4
      0000008DH   SFRSYM    DATA     BYTE      TH1
      000000FAH   SFRSYM    DATA     BYTE      PCA0H
      000000B8H.1 SFRSYM    DATA     BIT       IP_PT0
      000000B8H.3 SFRSYM    DATA     BIT       IP_PT1
      000000C0H.2 SFRSYM    DATA     BIT       SMB0CN0_ARBLOST
      000000B8H.5 SFRSYM    DATA     BIT       IP_PT2
      0000008AH   SFRSYM    DATA     BYTE      TL0
      000000F8H.1 SFRSYM    DATA     BIT       SPI0CN0_TXBMT
      000000C0H.2 SFRSYM    DATA     BIT       SMB1CN0_ARBLOST
      000000D0H.5 SFRSYM    DATA     BIT       PSW_F0
      000000A8H.6 SFRSYM    DATA     BIT       IE_ESPI0
      0000008BH   SFRSYM    DATA     BYTE      TL1
      000000F9H   SFRSYM    DATA     BYTE      PCA0L
      000000C0H.0 SFRSYM    DATA     BIT       SMB0CN0_SI
      000000D0H.1 SFRSYM    DATA     BIT       PSW_F1
      00000080H.0 SFRSYM    DATA     BIT       P0_B0
      000000B8H.0 SFRSYM    DATA     BIT       IP_PX0
      000000C9H   SFRSYM    DATA     BYTE      REG01CN
      000000C0H.0 SFRSYM    DATA     BIT       SMB1CN0_SI
      00000090H.0 SFRSYM    DATA     BIT       P1_B0
      00000080H.1 SFRSYM    DATA     BIT       P0_B1
      000000B8H.2 SFRSYM    DATA     BIT       IP_PX1
      0000009BH   SFRSYM    DATA     BYTE      CMP0CN0
      00000088H.1 SFRSYM    DATA     BIT       TCON_IE0
      000000A0H.0 SFRSYM    DATA     BIT       P2_B0
      00000090H.1 SFRSYM    DATA     BIT       P1_B1
      00000080H.2 SFRSYM    DATA     BIT       P0_B2
      0000009AH   SFRSYM    DATA     BYTE      CMP1CN0
      00000088H.3 SFRSYM    DATA     BIT       TCON_IE1
      000000B0H.0 SFRSYM    DATA     BIT       P3_B0
      000000A0H.1 SFRSYM    DATA     BIT       P2_B1
      00000090H.2 SFRSYM    DATA     BIT       P1_B2
      00000080H.3 SFRSYM    DATA     BIT       P0_B3
      000000C0H   SFRSYM    DATA     BYTE      SMB0CN0
      000000B0H.1 SFRSYM    DATA     BIT       P3_B1
      000000A0H.2 SFRSYM    DATA     BIT       P2_B2
      00000090H.3 SFRSYM    DATA     BIT       P1_B3
      00000080H.4 SFRSYM    DATA     BIT       P0_B4
      000000C0H   SFRSYM    DATA     BYTE      SMB1CN0
      000000B0H.2 SFRSYM    DATA     BIT       P3_B2
      000000A0H.3 SFRSYM    DATA     BIT       P2_B3
      00000090H.4 SFRSYM    DATA     BIT       P1_B4
      00000080H.5 SFRSYM    DATA     BIT       P0_B5
      000000B0H.3 SFRSYM    DATA     BIT       P3_B3
      000000A0H.4 SFRSYM    DATA     BIT       P2_B4
      00000090H.5 SFRSYM    DATA     BIT       P1_B5
      00000080H.6 SFRSYM    DATA     BIT       P0_B6
      000000B0H.4 SFRSYM    DATA     BIT       P3_B4
      000000A0H.5 SFRSYM    DATA     BIT       P2_B5
      00000090H.6 SFRSYM    DATA     BIT       P1_B6
      00000080H.7 SFRSYM    DATA     BIT       P0_B7
      000000B0H.5 SFRSYM    DATA     BIT       P3_B5
      000000A0H.6 SFRSYM    DATA     BIT       P2_B6
      00000090H.7 SFRSYM    DATA     BIT       P1_B7
      000000B0H.6 SFRSYM    DATA     BIT       P3_B6
LX51 LINKER/LOCATER V4.66.97.0                                                        01/21/2021  22:11:49  PAGE 31


      000000A0H.7 SFRSYM    DATA     BIT       P2_B7
      000000B0H.7 SFRSYM    DATA     BIT       P3_B7
      00000083H   SFRSYM    DATA     BYTE      DPH
      000000C4H   SFRSYM    DATA     BYTE      ADC0GTH
      000000C8H.7 SFRSYM    DATA     BIT       TMR2CN0_TF2H
      000000C8H.3 SFRSYM    DATA     BIT       TMR2CN0_T2SPLIT
      000000D0H.6 SFRSYM    DATA     BIT       PSW_AC
      000000F8H   SFRSYM    DATA     BYTE      SPI0CN0
      000000B3H   SFRSYM    DATA     BYTE      HFO0CAL
      00000088H.5 SFRSYM    DATA     BIT       TCON_TF0
      00000098H.0 SFRSYM    DATA     BIT       SCON0_RI
      00000082H   SFRSYM    DATA     BYTE      DPL
      00000088H.7 SFRSYM    DATA     BIT       TCON_TF1
      00000099H   SFRSYM    DATA     BYTE      SBUF0
      00000087H   SFRSYM    DATA     BYTE      PCON0
      000000C3H   SFRSYM    DATA     BYTE      ADC0GTL
      000000C8H.6 SFRSYM    DATA     BIT       TMR2CN0_TF2L
      00000098H.1 SFRSYM    DATA     BIT       SCON0_TI
      000000E8H.0 SFRSYM    DATA     BIT       ADC0CN0_ADCM0
      000000D3H   SFRSYM    DATA     BYTE      SBUF1
      000000C6H   SFRSYM    DATA     BYTE      ADC0LTH
      00000088H.0 SFRSYM    DATA     BIT       TCON_IT0
      000000E8H.1 SFRSYM    DATA     BIT       ADC0CN0_ADCM1
      000000EFH   SFRSYM    DATA     BYTE      RSTSRC
      000000C8H.7 SFRSYM    DATA     BIT       TMR5CN0_TF5H
      000000C8H.3 SFRSYM    DATA     BIT       TMR5CN0_T5SPLIT
      00000088H.2 SFRSYM    DATA     BIT       TCON_IT1
      000000E8H.2 SFRSYM    DATA     BIT       ADC0CN0_ADCM2
      00000098H   SFRSYM    DATA     BYTE      SCON0
      000000E8H.3 SFRSYM    DATA     BIT       ADC0CN0_ADWINT
      000000B4H   SFRSYM    DATA     WORD      SBRL1
      000000E5H   SFRSYM    DATA     BYTE      SMOD1
      000000D2H   SFRSYM    DATA     BYTE      SCON1
      000000BAH   SFRSYM    DATA     BYTE      AMX0N
      000000E8H.4 SFRSYM    DATA     BIT       ADC0CN0_ADBUSY
      000000CEH   SFRSYM    DATA     BYTE      SMB0ADM
      000000C5H   SFRSYM    DATA     BYTE      ADC0LTL
      000000F8H.5 SFRSYM    DATA     BIT       SPI0CN0_MODF
      000000B8H.6 SFRSYM    DATA     BIT       IP_PSPI0
      000000CEH   SFRSYM    DATA     BYTE      SMB1ADM
      000000BBH   SFRSYM    DATA     BYTE      AMX0P
      000000C8H.6 SFRSYM    DATA     BIT       TMR5CN0_TF5L
      000000C8H   SFRSYM    DATA     BYTE      TMR2CN0
      00000091H   SFRSYM    DATA     BYTE      TMR3CN0
      00000091H   SFRSYM    DATA     BYTE      TMR4CN0
      000000C8H   SFRSYM    DATA     BYTE      TMR5CN0
      000000CFH   SFRSYM    DATA     BYTE      SMB0ADR
      00000088H.4 SFRSYM    DATA     BIT       TCON_TR0
      000000CFH   SFRSYM    DATA     BYTE      SMB1ADR
      000000C8H.4 SFRSYM    DATA     BIT       TMR2CN0_TF2CEN
      00000088H.6 SFRSYM    DATA     BIT       TCON_TR1
      000000C2H   SFRSYM    DATA     BYTE      SMB0DAT
      000000CDH   SFRSYM    DATA     BYTE      TMR2H
      000000A1H   SFRSYM    DATA     BYTE      SPI0CFG
      000000C2H   SFRSYM    DATA     BYTE      SMB1DAT
      00000095H   SFRSYM    DATA     BYTE      TMR3H
      00000095H   SFRSYM    DATA     BYTE      TMR4H
      000000CDH   SFRSYM    DATA     BYTE      TMR5H
      000000CCH   SFRSYM    DATA     BYTE      TMR2L
      000000F8H.7 SFRSYM    DATA     BIT       SPI0CN0_SPIF
      00000096H   SFRSYM    DATA     BYTE      USB0ADR
      00000094H   SFRSYM    DATA     BYTE      TMR3L
LX51 LINKER/LOCATER V4.66.97.0                                                        01/21/2021  22:11:49  PAGE 32


      000000A8H.7 SFRSYM    DATA     BIT       IE_EA
      00000094H   SFRSYM    DATA     BYTE      TMR4L
      00000097H   SFRSYM    DATA     BYTE      USB0DAT
      000000CCH   SFRSYM    DATA     BYTE      TMR5L
      000000B6H   SFRSYM    DATA     BYTE      FLSCL
      000000C8H.5 SFRSYM    DATA     BIT       TMR2CN0_TF2LEN
      000000F8H.6 SFRSYM    DATA     BIT       SPI0CN0_WCOL
      000000F8H.2 SFRSYM    DATA     BIT       SPI0CN0_NSSMD0
      000000D0H.7 SFRSYM    DATA     BIT       PSW_CY
      000000A3H   SFRSYM    DATA     BYTE      SPI0DAT
      000000F8H.3 SFRSYM    DATA     BIT       SPI0CN0_NSSMD1
      000000BDH   SFRSYM    DATA     WORD      ADC0
      000000B9H   SFRSYM    DATA     BYTE      SMBTC
      000000D0H   SFRSYM    DATA     BYTE      PSW
      000000C8H.5 SFRSYM    DATA     BIT       TMR5CN0_TF5LEN
      000000B7H   SFRSYM    DATA     BYTE      FLKEY
      0100133CH   SYMBOL    CODE     ---       SetFeature
      01001874H   SYMBOL    CODE     ---       GetConfiguration
      01001B37H   SYMBOL    CODE     ---       USBD_ActivateAllEps
      01000E89H   SYMBOL    CODE     ---       SetConfiguration
      01000CFCH   SYMBOL    CODE     ---       GetStatus
      01001AD3H   SYMBOL    CODE     ---       _EP0_Write
      0100190EH   SYMBOL    CODE     ---       GetInterface
      010010B1H   SYMBOL    CODE     ---       ClearFeature
      010019FFH   SYMBOL    CODE     ---       SetInterface
      01000935H   SYMBOL    CODE     ---       GetDescriptor
      00000011H   SYMBOL    DATA     WORD      pStatus
      010015DBH   SYMBOL    CODE     ---       SetAddress

      01001821H   BLOCK     CODE     ---       LVL=0
      01001821H   BLOCK     CODE     NEAR LAB  LVL=1
      00000007H   SYMBOL    DATA     CHAR      status
      ---         BLOCKEND  ---      ---       LVL=1
      01001821H   LINE      CODE     ---       #47
      01001821H   LINE      CODE     ---       #48
      01001821H   LINE      CODE     ---       #49
      01001823H   LINE      CODE     ---       #51
      01001856H   LINE      CODE     ---       #52
      01001856H   LINE      CODE     ---       #53
      01001856H   LINE      CODE     ---       #54
      01001859H   LINE      CODE     ---       #55
      01001859H   LINE      CODE     ---       #57
      01001859H   LINE      CODE     ---       #58
      0100185CH   LINE      CODE     ---       #59
      0100185CH   LINE      CODE     ---       #61
      0100185CH   LINE      CODE     ---       #62
      0100185FH   LINE      CODE     ---       #63
      0100185FH   LINE      CODE     ---       #65
      0100185FH   LINE      CODE     ---       #66
      01001862H   LINE      CODE     ---       #67
      01001862H   LINE      CODE     ---       #69
      01001862H   LINE      CODE     ---       #70
      01001865H   LINE      CODE     ---       #71
      01001865H   LINE      CODE     ---       #73
      01001865H   LINE      CODE     ---       #74
      01001868H   LINE      CODE     ---       #75
      01001868H   LINE      CODE     ---       #77
      01001868H   LINE      CODE     ---       #78
      0100186BH   LINE      CODE     ---       #79
      0100186BH   LINE      CODE     ---       #81
      0100186BH   LINE      CODE     ---       #82
      0100186EH   LINE      CODE     ---       #83
LX51 LINKER/LOCATER V4.66.97.0                                                        01/21/2021  22:11:49  PAGE 33


      0100186EH   LINE      CODE     ---       #85
      0100186EH   LINE      CODE     ---       #86
      01001871H   LINE      CODE     ---       #87
      01001871H   LINE      CODE     ---       #89
      01001871H   LINE      CODE     ---       #90
      01001873H   LINE      CODE     ---       #91
      01001873H   LINE      CODE     ---       #92
      01001873H   LINE      CODE     ---       #94
      01001873H   LINE      CODE     ---       #95
      ---         BLOCKEND  ---      ---       LVL=0

      010010B1H   BLOCK     CODE     ---       LVL=0
      010010B1H   BLOCK     CODE     NEAR LAB  LVL=1
      00000026H   SYMBOL    DATA     CHAR      retVal
      ---         BLOCKEND  ---      ---       LVL=1
      010010B1H   LINE      CODE     ---       #104
      010010B1H   LINE      CODE     ---       #105
      010010B1H   LINE      CODE     ---       #106
      010010B4H   LINE      CODE     ---       #108
      010010BEH   LINE      CODE     ---       #109
      010010BEH   LINE      CODE     ---       #110
      010010CAH   LINE      CODE     ---       #111
      010010CAH   LINE      CODE     ---       #124
      010010CAH   LINE      CODE     ---       #125
      010010D4H   LINE      CODE     ---       #126
      010010D4H   LINE      CODE     ---       #129
      010010ECH   LINE      CODE     ---       #131
      010010ECH   LINE      CODE     ---       #132
      010010EFH   LINE      CODE     ---       #133
      010010F1H   LINE      CODE     ---       #134
      01001101H   LINE      CODE     ---       #136
      01001101H   LINE      CODE     ---       #137
      01001103H   LINE      CODE     ---       #138
      0100110CH   LINE      CODE     ---       #141
      01001112H   LINE      CODE     ---       #142
      01001112H   LINE      CODE     ---       #143
      0100111DH   LINE      CODE     ---       #144
      0100111DH   LINE      CODE     ---       #147
      01001123H   LINE      CODE     ---       #148
      01001123H   LINE      CODE     ---       #149
      0100113BH   LINE      CODE     ---       #150
      0100113BH   LINE      CODE     ---       #153
      01001146H   LINE      CODE     ---       #154
      01001146H   LINE      CODE     ---       #156
      01001146H   LINE      CODE     ---       #157
      0100114DH   LINE      CODE     ---       #158
      0100114DH   LINE      CODE     ---       #159
      0100114FH   LINE      CODE     ---       #160
      0100114FH   LINE      CODE     ---       #161
      01001151H   LINE      CODE     ---       #180
      01001151H   LINE      CODE     ---       #181
      01001158H   LINE      CODE     ---       #182
      01001158H   LINE      CODE     ---       #183
      0100115AH   LINE      CODE     ---       #184
      0100115AH   LINE      CODE     ---       #185
      0100115AH   LINE      CODE     ---       #203
      0100115AH   LINE      CODE     ---       #204
      0100115AH   LINE      CODE     ---       #205
      0100115AH   LINE      CODE     ---       #206
      0100115AH   LINE      CODE     ---       #207
      0100115AH   LINE      CODE     ---       #208
      0100115CH   LINE      CODE     ---       #209
LX51 LINKER/LOCATER V4.66.97.0                                                        01/21/2021  22:11:49  PAGE 34


      ---         BLOCKEND  ---      ---       LVL=0

      01001874H   BLOCK     CODE     ---       LVL=0
      01001874H   BLOCK     CODE     NEAR LAB  LVL=1
      00000007H   SYMBOL    DATA     CHAR      retVal
      ---         BLOCKEND  ---      ---       LVL=1
      01001874H   LINE      CODE     ---       #219
      01001874H   LINE      CODE     ---       #220
      01001874H   LINE      CODE     ---       #221
      01001876H   LINE      CODE     ---       #223
      0100189FH   LINE      CODE     ---       #228
      0100189FH   LINE      CODE     ---       #229
      010018A6H   LINE      CODE     ---       #230
      010018A6H   LINE      CODE     ---       #231
      010018ACH   LINE      CODE     ---       #232
      010018ACH   LINE      CODE     ---       #233
      010018AEH   LINE      CODE     ---       #234
      010018B5H   LINE      CODE     ---       #235
      010018B5H   LINE      CODE     ---       #236
      010018C0H   LINE      CODE     ---       #237
      010018C2H   LINE      CODE     ---       #238
      010018C2H   LINE      CODE     ---       #239
      010018C2H   LINE      CODE     ---       #240
      010018C2H   LINE      CODE     ---       #241
      ---         BLOCKEND  ---      ---       LVL=0

      01000935H   BLOCK     CODE     ---       LVL=0
      01000935H   BLOCK     CODE     NEAR LAB  LVL=1
      00000026H   SYMBOL    DATA     BYTE      index
      00000004H   SYMBOL    DATA     WORD      length
      00000027H   SYMBOL    DATA     ---       dat
      0000002AH   SYMBOL    DATA     CHAR      retVal
      ---         BLOCKEND  ---      ---       LVL=1
      01000935H   LINE      CODE     ---       #251
      01000935H   LINE      CODE     ---       #252
      01000935H   LINE      CODE     ---       #259
      01000938H   LINE      CODE     ---       #261
      0100093BH   LINE      CODE     ---       #263
      01000945H   LINE      CODE     ---       #265
      01000945H   LINE      CODE     ---       #266
      0100094DH   LINE      CODE     ---       #268
      01000964H   LINE      CODE     ---       #269
      01000964H   LINE      CODE     ---       #270
      01000964H   LINE      CODE     ---       #271
      0100096BH   LINE      CODE     ---       #272
      0100096BH   LINE      CODE     ---       #273
      0100096BH   LINE      CODE     ---       #274
      0100096BH   LINE      CODE     ---       #275
      0100097BH   LINE      CODE     ---       #276
      01000981H   LINE      CODE     ---       #277
      01000984H   LINE      CODE     ---       #279
      01000984H   LINE      CODE     ---       #280
      0100098BH   LINE      CODE     ---       #281
      0100098BH   LINE      CODE     ---       #282
      0100098BH   LINE      CODE     ---       #283
      0100098BH   LINE      CODE     ---       #284
      0100099BH   LINE      CODE     ---       #285
      010009A9H   LINE      CODE     ---       #286
      010009ABH   LINE      CODE     ---       #288
      010009ABH   LINE      CODE     ---       #291
      010009C9H   LINE      CODE     ---       #295
      010009CDH   LINE      CODE     ---       #296
LX51 LINKER/LOCATER V4.66.97.0                                                        01/21/2021  22:11:49  PAGE 35


      010009CDH   LINE      CODE     ---       #297
      010009D0H   LINE      CODE     ---       #298
      010009D6H   LINE      CODE     ---       #299
      010009D8H   LINE      CODE     ---       #302
      010009ECH   LINE      CODE     ---       #303
      010009ECH   LINE      CODE     ---       #305
      010009F4H   LINE      CODE     ---       #306
      010009F4H   LINE      CODE     ---       #307
      01000A03H   LINE      CODE     ---       #308
      01000A11H   LINE      CODE     ---       #309
      01000A1CH   LINE      CODE     ---       #310
      01000A20H   LINE      CODE     ---       #311
      01000A20H   LINE      CODE     ---       #312
      01000A20H   LINE      CODE     ---       #354
      01000A20H   LINE      CODE     ---       #358
      01000A24H   LINE      CODE     ---       #359
      01000A24H   LINE      CODE     ---       #360
      01000A32H   LINE      CODE     ---       #361
      01000A32H   LINE      CODE     ---       #362
      01000A36H   LINE      CODE     ---       #363
      01000A36H   LINE      CODE     ---       #365
      01000A3FH   LINE      CODE     ---       #367
      01000A42H   LINE      CODE     ---       #368
      01000A42H   LINE      CODE     ---       #369
      01000A42H   LINE      CODE     ---       #371
      01000A44H   LINE      CODE     ---       #372
      ---         BLOCKEND  ---      ---       LVL=0

      0100190EH   BLOCK     CODE     ---       LVL=0
      0100190EH   BLOCK     CODE     NEAR LAB  LVL=1
      00000006H   SYMBOL    DATA     WORD      interface
      00000005H   SYMBOL    DATA     CHAR      retVal
      ---         BLOCKEND  ---      ---       LVL=1
      0100190EH   LINE      CODE     ---       #381
      0100190EH   LINE      CODE     ---       #382
      0100190EH   LINE      CODE     ---       #383
      01001914H   LINE      CODE     ---       #384
      01001916H   LINE      CODE     ---       #389
      01001935H   LINE      CODE     ---       #391
      01001935H   LINE      CODE     ---       #392
      0100193CH   LINE      CODE     ---       #393
      0100193CH   LINE      CODE     ---       #399
      01001948H   LINE      CODE     ---       #401
      0100194AH   LINE      CODE     ---       #402
      0100194AH   LINE      CODE     ---       #403
      0100194AH   LINE      CODE     ---       #404
      0100194CH   LINE      CODE     ---       #405
      ---         BLOCKEND  ---      ---       LVL=0

      01000CFCH   BLOCK     CODE     ---       LVL=0
      01000CFCH   BLOCK     CODE     NEAR LAB  LVL=1
      00000026H   SYMBOL    DATA     CHAR      retVal
      ---         BLOCKEND  ---      ---       LVL=1
      01000CFCH   LINE      CODE     ---       #414
      01000CFCH   LINE      CODE     ---       #415
      01000CFCH   LINE      CODE     ---       #416
      01000CFFH   LINE      CODE     ---       #418
      01000D35H   LINE      CODE     ---       #422
      01000D35H   LINE      CODE     ---       #423
      01000D3AH   LINE      CODE     ---       #425
      01000D47H   LINE      CODE     ---       #426
      01000D47H   LINE      CODE     ---       #427
LX51 LINKER/LOCATER V4.66.97.0                                                        01/21/2021  22:11:49  PAGE 36


      01000D47H   LINE      CODE     ---       #428
      01000D4EH   LINE      CODE     ---       #429
      01000D4EH   LINE      CODE     ---       #440
      01000D53H   LINE      CODE     ---       #441
      01000D53H   LINE      CODE     ---       #442
      01000D56H   LINE      CODE     ---       #443
      01000D56H   LINE      CODE     ---       #448
      01000D56H   LINE      CODE     ---       #449
      01000D56H   LINE      CODE     ---       #450
      01000D58H   LINE      CODE     ---       #452
      01000D58H   LINE      CODE     ---       #453
      01000D64H   LINE      CODE     ---       #454
      01000D64H   LINE      CODE     ---       #455
      01000D64H   LINE      CODE     ---       #456
      01000D64H   LINE      CODE     ---       #457
      01000D66H   LINE      CODE     ---       #460
      01000D66H   LINE      CODE     ---       #463
      01000D7BH   LINE      CODE     ---       #465
      01000D7BH   LINE      CODE     ---       #466
      01000D7DH   LINE      CODE     ---       #467
      01000D7FH   LINE      CODE     ---       #468
      01000D86H   LINE      CODE     ---       #469
      01000D86H   LINE      CODE     ---       #470
      01000D8FH   LINE      CODE     ---       #471
      01000D8FH   LINE      CODE     ---       #473
      01000D8FH   LINE      CODE     ---       #474
      01000D96H   LINE      CODE     ---       #475
      01000D96H   LINE      CODE     ---       #476
      01000D9BH   LINE      CODE     ---       #477
      01000D9BH   LINE      CODE     ---       #478
      01000D9BH   LINE      CODE     ---       #479
      01000D9DH   LINE      CODE     ---       #500
      01000D9DH   LINE      CODE     ---       #501
      01000DA4H   LINE      CODE     ---       #502
      01000DA4H   LINE      CODE     ---       #503
      01000DA9H   LINE      CODE     ---       #504
      01000DA9H   LINE      CODE     ---       #505
      01000DACH   LINE      CODE     ---       #506
      01000DACH   LINE      CODE     ---       #526
      01000DACH   LINE      CODE     ---       #527
      01000DACH   LINE      CODE     ---       #528
      01000DACH   LINE      CODE     ---       #529
      01000DACH   LINE      CODE     ---       #532
      01000DB5H   LINE      CODE     ---       #533
      01000DB5H   LINE      CODE     ---       #534
      01000DC0H   LINE      CODE     ---       #535
      01000DC0H   LINE      CODE     ---       #536
      01000DC0H   LINE      CODE     ---       #538
      01000DC2H   LINE      CODE     ---       #539
      ---         BLOCKEND  ---      ---       LVL=0

      010015DBH   BLOCK     CODE     ---       LVL=0
      010015DBH   BLOCK     CODE     NEAR LAB  LVL=1
      00000026H   SYMBOL    DATA     CHAR      retVal
      ---         BLOCKEND  ---      ---       LVL=1
      010015DBH   LINE      CODE     ---       #547
      010015DBH   LINE      CODE     ---       #548
      010015DBH   LINE      CODE     ---       #549
      010015DEH   LINE      CODE     ---       #551
      01001602H   LINE      CODE     ---       #555
      01001602H   LINE      CODE     ---       #558
      01001609H   LINE      CODE     ---       #559
LX51 LINKER/LOCATER V4.66.97.0                                                        01/21/2021  22:11:49  PAGE 37


      01001609H   LINE      CODE     ---       #560
      0100160DH   LINE      CODE     ---       #561
      0100160DH   LINE      CODE     ---       #562
      01001612H   LINE      CODE     ---       #563
      01001612H   LINE      CODE     ---       #564
      01001612H   LINE      CODE     ---       #565
      01001614H   LINE      CODE     ---       #568
      0100161BH   LINE      CODE     ---       #569
      0100161BH   LINE      CODE     ---       #570
      01001622H   LINE      CODE     ---       #571
      01001622H   LINE      CODE     ---       #572
      01001627H   LINE      CODE     ---       #573
      01001627H   LINE      CODE     ---       #574
      0100162AH   LINE      CODE     ---       #575
      0100162AH   LINE      CODE     ---       #578
      01001633H   LINE      CODE     ---       #579
      01001633H   LINE      CODE     ---       #580
      01001641H   LINE      CODE     ---       #581
      01001641H   LINE      CODE     ---       #582
      01001641H   LINE      CODE     ---       #584
      01001643H   LINE      CODE     ---       #585
      ---         BLOCKEND  ---      ---       LVL=0

      01000E89H   BLOCK     CODE     ---       LVL=0
      01000E89H   BLOCK     CODE     NEAR LAB  LVL=1
      00000026H   SYMBOL    DATA     CHAR      retVal
      ---         BLOCKEND  ---      ---       LVL=1
      01000E89H   LINE      CODE     ---       #593
      01000E89H   LINE      CODE     ---       #594
      01000E89H   LINE      CODE     ---       #595
      01000E8CH   LINE      CODE     ---       #597
      01000EB1H   LINE      CODE     ---       #601
      01000EB1H   LINE      CODE     ---       #604
      01000EB8H   LINE      CODE     ---       #605
      01000EB8H   LINE      CODE     ---       #606
      01000ED8H   LINE      CODE     ---       #608
      01000ED8H   LINE      CODE     ---       #609
      01000EDEH   LINE      CODE     ---       #610
      01000EF7H   LINE      CODE     ---       #611
      01000EF7H   LINE      CODE     ---       #612
      01000EFCH   LINE      CODE     ---       #613
      01000F01H   LINE      CODE     ---       #614
      01000F01H   LINE      CODE     ---       #615
      01000F01H   LINE      CODE     ---       #616
      01000F01H   LINE      CODE     ---       #617
      01000F03H   LINE      CODE     ---       #620
      01000F0AH   LINE      CODE     ---       #621
      01000F0AH   LINE      CODE     ---       #622
      01000F2BH   LINE      CODE     ---       #624
      01000F2BH   LINE      CODE     ---       #625
      01000F31H   LINE      CODE     ---       #626
      01000F38H   LINE      CODE     ---       #627
      01000F38H   LINE      CODE     ---       #628
      01000F3DH   LINE      CODE     ---       #629
      01000F40H   LINE      CODE     ---       #630
      01000F42H   LINE      CODE     ---       #632
      01000F42H   LINE      CODE     ---       #634
      01000F47H   LINE      CODE     ---       #635
      01000F47H   LINE      CODE     ---       #636
      01000F4AH   LINE      CODE     ---       #637
      01000F4AH   LINE      CODE     ---       #638
      01000F4AH   LINE      CODE     ---       #639
LX51 LINKER/LOCATER V4.66.97.0                                                        01/21/2021  22:11:49  PAGE 38


      01000F4AH   LINE      CODE     ---       #641
      01000F4CH   LINE      CODE     ---       #642
      ---         BLOCKEND  ---      ---       LVL=0

      0100133CH   BLOCK     CODE     ---       LVL=0
      0100133CH   BLOCK     CODE     NEAR LAB  LVL=1
      00000026H   SYMBOL    DATA     CHAR      retVal
      ---         BLOCKEND  ---      ---       LVL=1
      0100133CH   LINE      CODE     ---       #650
      0100133CH   LINE      CODE     ---       #651
      0100133CH   LINE      CODE     ---       #652
      0100133FH   LINE      CODE     ---       #654
      01001349H   LINE      CODE     ---       #655
      01001349H   LINE      CODE     ---       #656
      01001352H   LINE      CODE     ---       #657
      01001352H   LINE      CODE     ---       #669
      01001352H   LINE      CODE     ---       #672
      0100136AH   LINE      CODE     ---       #674
      0100136AH   LINE      CODE     ---       #675
      0100136DH   LINE      CODE     ---       #676
      0100136FH   LINE      CODE     ---       #677
      01001386H   LINE      CODE     ---       #680
      01001386H   LINE      CODE     ---       #681
      01001388H   LINE      CODE     ---       #682
      01001391H   LINE      CODE     ---       #686
      01001397H   LINE      CODE     ---       #687
      01001397H   LINE      CODE     ---       #688
      010013A2H   LINE      CODE     ---       #689
      010013A2H   LINE      CODE     ---       #692
      010013A8H   LINE      CODE     ---       #693
      010013A8H   LINE      CODE     ---       #694
      010013B8H   LINE      CODE     ---       #695
      010013B8H   LINE      CODE     ---       #699
      010013C3H   LINE      CODE     ---       #700
      010013C3H   LINE      CODE     ---       #702
      010013C3H   LINE      CODE     ---       #703
      010013C7H   LINE      CODE     ---       #704
      010013C9H   LINE      CODE     ---       #717
      010013C9H   LINE      CODE     ---       #718
      010013CDH   LINE      CODE     ---       #719
      010013CDH   LINE      CODE     ---       #731
      010013CDH   LINE      CODE     ---       #732
      010013CDH   LINE      CODE     ---       #733
      010013CDH   LINE      CODE     ---       #734
      010013CDH   LINE      CODE     ---       #736
      010013CFH   LINE      CODE     ---       #737
      ---         BLOCKEND  ---      ---       LVL=0

      010019FFH   BLOCK     CODE     ---       LVL=0
      010019FFH   BLOCK     CODE     NEAR LAB  LVL=1
      00000007H   SYMBOL    DATA     CHAR      retVal
      00000006H   SYMBOL    DATA     BYTE      interface
      00000005H   SYMBOL    DATA     BYTE      altSetting
      ---         BLOCKEND  ---      ---       LVL=1
      010019FFH   LINE      CODE     ---       #745
      010019FFH   LINE      CODE     ---       #746
      010019FFH   LINE      CODE     ---       #747
      01001A01H   LINE      CODE     ---       #748
      01001A05H   LINE      CODE     ---       #749
      01001A09H   LINE      CODE     ---       #751
      01001A2FH   LINE      CODE     ---       #758
      01001A2FH   LINE      CODE     ---       #768
LX51 LINKER/LOCATER V4.66.97.0                                                        01/21/2021  22:11:49  PAGE 39


      01001A34H   LINE      CODE     ---       #770
      01001A36H   LINE      CODE     ---       #772
      01001A36H   LINE      CODE     ---       #774
      01001A36H   LINE      CODE     ---       #775
      ---         BLOCKEND  ---      ---       LVL=0

      01001B37H   BLOCK     CODE     ---       LVL=0
      00000020H.0 SYMBOL    BIT      BIT       forceIdle
      01001B37H   LINE      CODE     ---       #786
      01001B37H   LINE      CODE     ---       #787
      01001B37H   LINE      CODE     ---       #788
      01001B3AH   LINE      CODE     ---       #789
      01001B3AH   LINE      CODE     ---       #791
      01001B3EH   LINE      CODE     ---       #800
      01001B42H   LINE      CODE     ---       #808
      01001B42H   LINE      CODE     ---       #811
      01001B51H   LINE      CODE     ---       #832
      ---         BLOCKEND  ---      ---       LVL=0

      01001AD3H   BLOCK     CODE     ---       LVL=0
      00000001H   SYMBOL    DATA     ---       dat
      00000004H   SYMBOL    DATA     WORD      numBytes
      01001AD3H   LINE      CODE     ---       #861
      01001AD3H   LINE      CODE     ---       #862
      01001AD3H   LINE      CODE     ---       #863
      01001ADAH   LINE      CODE     ---       #864
      01001ADAH   LINE      CODE     ---       #865
      01001AE4H   LINE      CODE     ---       #866
      01001AEAH   LINE      CODE     ---       #867
      01001AEDH   LINE      CODE     ---       #868
      01001AEFH   LINE      CODE     ---       #871
      01001AFFH   LINE      CODE     ---       #873
      01001AFFH   LINE      CODE     ---       #874
      01001B05H   LINE      CODE     ---       #875
      01001B05H   LINE      CODE     ---       #876
      01001B05H   LINE      CODE     ---       #877
      ---         BLOCKEND  ---      ---       LVL=0

      ---         MODULE    ---      ---       EFM8_USBDEP
      00000020H.2 PUBLIC    BIT      BIT       ?_USB_WriteFIFO?BIT
      0100156DH   PUBLIC    CODE     ---       _USB_WriteFIFO
      010018C3H   PUBLIC    CODE     ---       _USB_ReadFIFO
      01000C29H   PUBLIC    CODE     ---       handleUsbOut1Int
      0100115DH   PUBLIC    CODE     ---       handleUsbIn1Int
      000000A2H   SFRSYM    DATA     BYTE      SPI0CKR
      00000080H   SFRSYM    DATA     BYTE      P0
      000000D0H.2 SFRSYM    DATA     BIT       PSW_OV
      000000B1H   SFRSYM    DATA     BYTE      XOSC0CN
      00000090H   SFRSYM    DATA     BYTE      P1
      000000A0H   SFRSYM    DATA     BYTE      P2
      000000B0H   SFRSYM    DATA     BYTE      P3
      000000BCH   SFRSYM    DATA     BYTE      ADC0CF
      000000C8H.0 SFRSYM    DATA     BIT       TMR2CN0_T2XCLK
      000000C7H   SFRSYM    DATA     BYTE      P4
      000000C0H.7 SFRSYM    DATA     BIT       SMB0CN0_MASTER
      000000F9H   SFRSYM    DATA     WORD      PCA0
      000000E6H   SFRSYM    DATA     BYTE      EIE1
      000000C0H.7 SFRSYM    DATA     BIT       SMB1CN0_MASTER
      000000C0H.1 SFRSYM    DATA     BIT       SMB0CN0_ACK
      000000D7H   SFRSYM    DATA     BYTE      USB0XCN
      000000E7H   SFRSYM    DATA     BYTE      EIE2
      000000C0H.1 SFRSYM    DATA     BIT       SMB1CN0_ACK
LX51 LINKER/LOCATER V4.66.97.0                                                        01/21/2021  22:11:49  PAGE 40


      0000008FH   SFRSYM    DATA     BYTE      PSCTL
      000000E4H   SFRSYM    DATA     BYTE      IT01CF
      000000C8H.0 SFRSYM    DATA     BIT       TMR5CN0_T5XCLK
      000000C0H.6 SFRSYM    DATA     BIT       SMB0CN0_TXMODE
      000000C0H.6 SFRSYM    DATA     BIT       SMB1CN0_TXMODE
      000000BFH   SFRSYM    DATA     BYTE      SFRPAGE
      000000A4H   SFRSYM    DATA     BYTE      P0MDOUT
      000000A5H   SFRSYM    DATA     BYTE      P1MDOUT
      000000E8H.5 SFRSYM    DATA     BIT       ADC0CN0_ADINT
      000000CBH   SFRSYM    DATA     BYTE      TMR2RLH
      000000A6H   SFRSYM    DATA     BYTE      P2MDOUT
      000000A8H   SFRSYM    DATA     BYTE      IE
      00000093H   SFRSYM    DATA     BYTE      TMR3RLH
      000000A7H   SFRSYM    DATA     BYTE      P3MDOUT
      00000093H   SFRSYM    DATA     BYTE      TMR4RLH
      000000AEH   SFRSYM    DATA     BYTE      P4MDOUT
      000000F6H   SFRSYM    DATA     BYTE      EIP1
      000000CBH   SFRSYM    DATA     BYTE      TMR5RLH
      000000F7H   SFRSYM    DATA     BYTE      EIP2
      00000098H.2 SFRSYM    DATA     BIT       SCON0_RB8
      000000CAH   SFRSYM    DATA     BYTE      TMR2RLL
      000000FCH   SFRSYM    DATA     BYTE      PCA0CPH0
      00000092H   SFRSYM    DATA     BYTE      TMR3RLL
      000000EAH   SFRSYM    DATA     BYTE      PCA0CPH1
      00000098H.3 SFRSYM    DATA     BIT       SCON0_TB8
      000000F0H.0 SFRSYM    DATA     BIT       B_B0
      00000082H   SFRSYM    DATA     WORD      DP
      00000092H   SFRSYM    DATA     BYTE      TMR4RLL
      000000ECH   SFRSYM    DATA     BYTE      PCA0CPH2
      000000F0H.1 SFRSYM    DATA     BIT       B_B1
      000000C3H   SFRSYM    DATA     WORD      ADC0GT
      000000CAH   SFRSYM    DATA     BYTE      TMR5RLL
      000000EEH   SFRSYM    DATA     BYTE      PCA0CPH3
      000000F0H.2 SFRSYM    DATA     BIT       B_B2
      000000FBH   SFRSYM    DATA     BYTE      PCA0CPL0
      000000FEH   SFRSYM    DATA     BYTE      PCA0CPH4
      00000085H   SFRSYM    DATA     BYTE      EMI0CF
      000000F0H.3 SFRSYM    DATA     BIT       B_B3
      000000D9H   SFRSYM    DATA     BYTE      PCA0MD
      000000DAH   SFRSYM    DATA     BYTE      PCA0CPM0
      000000E9H   SFRSYM    DATA     BYTE      PCA0CPL1
      000000F0H.4 SFRSYM    DATA     BIT       B_B4
      000000DBH   SFRSYM    DATA     BYTE      PCA0CPM1
      000000EBH   SFRSYM    DATA     BYTE      PCA0CPL2
      000000F0H.5 SFRSYM    DATA     BIT       B_B5
      000000DCH   SFRSYM    DATA     BYTE      PCA0CPM2
      000000EDH   SFRSYM    DATA     BYTE      PCA0CPL3
      000000B8H   SFRSYM    DATA     BYTE      IP
      000000F0H.6 SFRSYM    DATA     BIT       B_B6
      000000C5H   SFRSYM    DATA     WORD      ADC0LT
      000000DDH   SFRSYM    DATA     BYTE      PCA0CPM3
      000000FDH   SFRSYM    DATA     BYTE      PCA0CPL4
      00000098H.5 SFRSYM    DATA     BIT       SCON0_MCE
      000000F0H.7 SFRSYM    DATA     BIT       B_B7
      000000DEH   SFRSYM    DATA     BYTE      PCA0CPM4
      000000E1H   SFRSYM    DATA     BYTE      XBR0
      000000C1H   SFRSYM    DATA     BYTE      SMB0CF
      000000E2H   SFRSYM    DATA     BYTE      XBR1
      000000C1H   SFRSYM    DATA     BYTE      SMB1CF
      000000AFH   SFRSYM    DATA     BYTE      PFE0CN
      000000AAH   SFRSYM    DATA     BYTE      EMI0CN
      000000C0H.5 SFRSYM    DATA     BIT       SMB0CN0_STA
LX51 LINKER/LOCATER V4.66.97.0                                                        01/21/2021  22:11:49  PAGE 41


      000000E3H   SFRSYM    DATA     BYTE      XBR2
      000000C0H.5 SFRSYM    DATA     BIT       SMB1CN0_STA
      000000E0H.0 SFRSYM    DATA     BIT       ACC_ACC0
      000000D1H   SFRSYM    DATA     BYTE      REF0CN
      000000B2H   SFRSYM    DATA     BYTE      HFO0CN
      0000008EH   SFRSYM    DATA     BYTE      CKCON0
      000000E0H.1 SFRSYM    DATA     BIT       ACC_ACC1
      000000E4H   SFRSYM    DATA     BYTE      CKCON1
      000000C8H.2 SFRSYM    DATA     BIT       TMR2CN0_TR2
      000000E0H.2 SFRSYM    DATA     BIT       ACC_ACC2
      000000E0H.3 SFRSYM    DATA     BIT       ACC_ACC3
      00000081H   SFRSYM    DATA     BYTE      SP
      0000009DH   SFRSYM    DATA     BYTE      CMP0MD
      000000E0H.4 SFRSYM    DATA     BIT       ACC_ACC4
      00000086H   SFRSYM    DATA     BYTE      LFO0CN
      00000084H   SFRSYM    DATA     BYTE      EMI0TC
      0000009CH   SFRSYM    DATA     BYTE      CMP1MD
      000000D8H.0 SFRSYM    DATA     BIT       PCA0CN0_CCF0
      000000E0H.5 SFRSYM    DATA     BIT       ACC_ACC5
      000000D8H.1 SFRSYM    DATA     BIT       PCA0CN0_CCF1
      000000E0H.6 SFRSYM    DATA     BIT       ACC_ACC6
      000000CCH   SFRSYM    DATA     WORD      TMR2
      000000D8H.2 SFRSYM    DATA     BIT       PCA0CN0_CCF2
      000000E0H.7 SFRSYM    DATA     BIT       ACC_ACC7
      00000094H   SFRSYM    DATA     WORD      TMR3
      000000C8H.2 SFRSYM    DATA     BIT       TMR5CN0_TR5
      000000D8H.3 SFRSYM    DATA     BIT       PCA0CN0_CCF3
      00000094H   SFRSYM    DATA     WORD      TMR4
      000000ACH   SFRSYM    DATA     BYTE      SBCON1
      000000D8H.4 SFRSYM    DATA     BIT       PCA0CN0_CCF4
      000000CCH   SFRSYM    DATA     WORD      TMR5
      000000C0H.3 SFRSYM    DATA     BIT       SMB0CN0_ACKRQ
      000000FFH   SFRSYM    DATA     BYTE      VDM0CN
      000000F1H   SFRSYM    DATA     BYTE      P0MDIN
      000000C0H.3 SFRSYM    DATA     BIT       SMB1CN0_ACKRQ
      00000098H.4 SFRSYM    DATA     BIT       SCON0_REN
      000000F2H   SFRSYM    DATA     BYTE      P1MDIN
      000000F3H   SFRSYM    DATA     BYTE      P2MDIN
      000000C0H.4 SFRSYM    DATA     BIT       SMB0CN0_STO
      000000F4H   SFRSYM    DATA     BYTE      P3MDIN
      000000C0H.4 SFRSYM    DATA     BIT       SMB1CN0_STO
      000000B5H   SFRSYM    DATA     BYTE      SBRLH1
      000000F5H   SFRSYM    DATA     BYTE      P4MDIN
      000000D0H.3 SFRSYM    DATA     BIT       PSW_RS0
      000000D8H.7 SFRSYM    DATA     BIT       PCA0CN0_CF
      000000F8H.4 SFRSYM    DATA     BIT       SPI0CN0_RXOVRN
      000000D0H.4 SFRSYM    DATA     BIT       PSW_RS1
      000000B4H   SFRSYM    DATA     BYTE      SBRLL1
      000000E8H.7 SFRSYM    DATA     BIT       ADC0CN0_ADEN
      00000089H   SFRSYM    DATA     BYTE      TMOD
      00000088H   SFRSYM    DATA     BYTE      TCON
      000000D0H.0 SFRSYM    DATA     BIT       PSW_PARITY
      000000A8H.4 SFRSYM    DATA     BIT       IE_ES0
      0000009FH   SFRSYM    DATA     BYTE      CMP0MX
      000000A8H.1 SFRSYM    DATA     BIT       IE_ET0
      0000009EH   SFRSYM    DATA     BYTE      CMP1MX
      000000A8H.3 SFRSYM    DATA     BIT       IE_ET1
      000000D4H   SFRSYM    DATA     BYTE      P0SKIP
      000000C8H.1 SFRSYM    DATA     BIT       TMR2CN0_T2CSS
      000000A8H.5 SFRSYM    DATA     BIT       IE_ET2
      000000D5H   SFRSYM    DATA     BYTE      P1SKIP
      000000D6H   SFRSYM    DATA     BYTE      P2SKIP
LX51 LINKER/LOCATER V4.66.97.0                                                        01/21/2021  22:11:49  PAGE 42


      000000E8H   SFRSYM    DATA     BYTE      ADC0CN0
      000000A8H.0 SFRSYM    DATA     BIT       IE_EX0
      000000DFH   SFRSYM    DATA     BYTE      P3SKIP
      000000D8H.6 SFRSYM    DATA     BIT       PCA0CN0_CR
      000000A8H.2 SFRSYM    DATA     BIT       IE_EX1
      00000098H.7 SFRSYM    DATA     BIT       SCON0_SMODE
      000000A9H   SFRSYM    DATA     BYTE      CLKSEL
      000000F8H.0 SFRSYM    DATA     BIT       SPI0CN0_SPIEN
      000000F0H   SFRSYM    DATA     BYTE      B
      000000BEH   SFRSYM    DATA     BYTE      ADC0H
      000000E8H.6 SFRSYM    DATA     BIT       ADC0CN0_ADTM
      000000CAH   SFRSYM    DATA     WORD      TMR2RL
      000000BDH   SFRSYM    DATA     BYTE      ADC0L
      00000092H   SFRSYM    DATA     WORD      TMR3RL
      00000092H   SFRSYM    DATA     WORD      TMR4RL
      000000D8H   SFRSYM    DATA     BYTE      PCA0CN0
      000000E0H   SFRSYM    DATA     BYTE      ACC
      000000CAH   SFRSYM    DATA     WORD      TMR5RL
      000000FBH   SFRSYM    DATA     WORD      PCA0CP0
      000000E9H   SFRSYM    DATA     WORD      PCA0CP1
      000000EBH   SFRSYM    DATA     WORD      PCA0CP2
      000000EDH   SFRSYM    DATA     WORD      PCA0CP3
      0000008CH   SFRSYM    DATA     BYTE      TH0
      000000B8H.4 SFRSYM    DATA     BIT       IP_PS0
      000000FDH   SFRSYM    DATA     WORD      PCA0CP4
      0000008DH   SFRSYM    DATA     BYTE      TH1
      000000FAH   SFRSYM    DATA     BYTE      PCA0H
      000000B8H.1 SFRSYM    DATA     BIT       IP_PT0
      000000B8H.3 SFRSYM    DATA     BIT       IP_PT1
      000000C0H.2 SFRSYM    DATA     BIT       SMB0CN0_ARBLOST
      000000B8H.5 SFRSYM    DATA     BIT       IP_PT2
      0000008AH   SFRSYM    DATA     BYTE      TL0
      000000F8H.1 SFRSYM    DATA     BIT       SPI0CN0_TXBMT
      000000C0H.2 SFRSYM    DATA     BIT       SMB1CN0_ARBLOST
      000000D0H.5 SFRSYM    DATA     BIT       PSW_F0
      000000A8H.6 SFRSYM    DATA     BIT       IE_ESPI0
      0000008BH   SFRSYM    DATA     BYTE      TL1
      000000F9H   SFRSYM    DATA     BYTE      PCA0L
      000000C0H.0 SFRSYM    DATA     BIT       SMB0CN0_SI
      000000D0H.1 SFRSYM    DATA     BIT       PSW_F1
      00000080H.0 SFRSYM    DATA     BIT       P0_B0
      000000B8H.0 SFRSYM    DATA     BIT       IP_PX0
      000000C9H   SFRSYM    DATA     BYTE      REG01CN
      000000C0H.0 SFRSYM    DATA     BIT       SMB1CN0_SI
      00000090H.0 SFRSYM    DATA     BIT       P1_B0
      00000080H.1 SFRSYM    DATA     BIT       P0_B1
      000000B8H.2 SFRSYM    DATA     BIT       IP_PX1
      0000009BH   SFRSYM    DATA     BYTE      CMP0CN0
      00000088H.1 SFRSYM    DATA     BIT       TCON_IE0
      000000A0H.0 SFRSYM    DATA     BIT       P2_B0
      00000090H.1 SFRSYM    DATA     BIT       P1_B1
      00000080H.2 SFRSYM    DATA     BIT       P0_B2
      0000009AH   SFRSYM    DATA     BYTE      CMP1CN0
      00000088H.3 SFRSYM    DATA     BIT       TCON_IE1
      000000B0H.0 SFRSYM    DATA     BIT       P3_B0
      000000A0H.1 SFRSYM    DATA     BIT       P2_B1
      00000090H.2 SFRSYM    DATA     BIT       P1_B2
      00000080H.3 SFRSYM    DATA     BIT       P0_B3
      000000C0H   SFRSYM    DATA     BYTE      SMB0CN0
      000000B0H.1 SFRSYM    DATA     BIT       P3_B1
      000000A0H.2 SFRSYM    DATA     BIT       P2_B2
      00000090H.3 SFRSYM    DATA     BIT       P1_B3
LX51 LINKER/LOCATER V4.66.97.0                                                        01/21/2021  22:11:49  PAGE 43


      00000080H.4 SFRSYM    DATA     BIT       P0_B4
      000000C0H   SFRSYM    DATA     BYTE      SMB1CN0
      000000B0H.2 SFRSYM    DATA     BIT       P3_B2
      000000A0H.3 SFRSYM    DATA     BIT       P2_B3
      00000090H.4 SFRSYM    DATA     BIT       P1_B4
      00000080H.5 SFRSYM    DATA     BIT       P0_B5
      000000B0H.3 SFRSYM    DATA     BIT       P3_B3
      000000A0H.4 SFRSYM    DATA     BIT       P2_B4
      00000090H.5 SFRSYM    DATA     BIT       P1_B5
      00000080H.6 SFRSYM    DATA     BIT       P0_B6
      000000B0H.4 SFRSYM    DATA     BIT       P3_B4
      000000A0H.5 SFRSYM    DATA     BIT       P2_B5
      00000090H.6 SFRSYM    DATA     BIT       P1_B6
      00000080H.7 SFRSYM    DATA     BIT       P0_B7
      000000B0H.5 SFRSYM    DATA     BIT       P3_B5
      000000A0H.6 SFRSYM    DATA     BIT       P2_B6
      00000090H.7 SFRSYM    DATA     BIT       P1_B7
      000000B0H.6 SFRSYM    DATA     BIT       P3_B6
      000000A0H.7 SFRSYM    DATA     BIT       P2_B7
      000000B0H.7 SFRSYM    DATA     BIT       P3_B7
      00000083H   SFRSYM    DATA     BYTE      DPH
      000000C4H   SFRSYM    DATA     BYTE      ADC0GTH
      000000C8H.7 SFRSYM    DATA     BIT       TMR2CN0_TF2H
      000000C8H.3 SFRSYM    DATA     BIT       TMR2CN0_T2SPLIT
      000000D0H.6 SFRSYM    DATA     BIT       PSW_AC
      000000F8H   SFRSYM    DATA     BYTE      SPI0CN0
      000000B3H   SFRSYM    DATA     BYTE      HFO0CAL
      00000088H.5 SFRSYM    DATA     BIT       TCON_TF0
      00000098H.0 SFRSYM    DATA     BIT       SCON0_RI
      00000082H   SFRSYM    DATA     BYTE      DPL
      00000088H.7 SFRSYM    DATA     BIT       TCON_TF1
      00000099H   SFRSYM    DATA     BYTE      SBUF0
      00000087H   SFRSYM    DATA     BYTE      PCON0
      000000C3H   SFRSYM    DATA     BYTE      ADC0GTL
      000000C8H.6 SFRSYM    DATA     BIT       TMR2CN0_TF2L
      00000098H.1 SFRSYM    DATA     BIT       SCON0_TI
      000000E8H.0 SFRSYM    DATA     BIT       ADC0CN0_ADCM0
      000000D3H   SFRSYM    DATA     BYTE      SBUF1
      000000C6H   SFRSYM    DATA     BYTE      ADC0LTH
      00000088H.0 SFRSYM    DATA     BIT       TCON_IT0
      000000E8H.1 SFRSYM    DATA     BIT       ADC0CN0_ADCM1
      000000EFH   SFRSYM    DATA     BYTE      RSTSRC
      000000C8H.7 SFRSYM    DATA     BIT       TMR5CN0_TF5H
      000000C8H.3 SFRSYM    DATA     BIT       TMR5CN0_T5SPLIT
      00000088H.2 SFRSYM    DATA     BIT       TCON_IT1
      000000E8H.2 SFRSYM    DATA     BIT       ADC0CN0_ADCM2
      00000098H   SFRSYM    DATA     BYTE      SCON0
      000000E8H.3 SFRSYM    DATA     BIT       ADC0CN0_ADWINT
      000000B4H   SFRSYM    DATA     WORD      SBRL1
      000000E5H   SFRSYM    DATA     BYTE      SMOD1
      000000D2H   SFRSYM    DATA     BYTE      SCON1
      000000BAH   SFRSYM    DATA     BYTE      AMX0N
      000000E8H.4 SFRSYM    DATA     BIT       ADC0CN0_ADBUSY
      000000CEH   SFRSYM    DATA     BYTE      SMB0ADM
      000000C5H   SFRSYM    DATA     BYTE      ADC0LTL
      000000F8H.5 SFRSYM    DATA     BIT       SPI0CN0_MODF
      000000B8H.6 SFRSYM    DATA     BIT       IP_PSPI0
      000000CEH   SFRSYM    DATA     BYTE      SMB1ADM
      000000BBH   SFRSYM    DATA     BYTE      AMX0P
      000000C8H.6 SFRSYM    DATA     BIT       TMR5CN0_TF5L
      000000C8H   SFRSYM    DATA     BYTE      TMR2CN0
      00000091H   SFRSYM    DATA     BYTE      TMR3CN0
LX51 LINKER/LOCATER V4.66.97.0                                                        01/21/2021  22:11:49  PAGE 44


      00000091H   SFRSYM    DATA     BYTE      TMR4CN0
      000000C8H   SFRSYM    DATA     BYTE      TMR5CN0
      000000CFH   SFRSYM    DATA     BYTE      SMB0ADR
      00000088H.4 SFRSYM    DATA     BIT       TCON_TR0
      000000CFH   SFRSYM    DATA     BYTE      SMB1ADR
      000000C8H.4 SFRSYM    DATA     BIT       TMR2CN0_TF2CEN
      00000088H.6 SFRSYM    DATA     BIT       TCON_TR1
      000000C2H   SFRSYM    DATA     BYTE      SMB0DAT
      000000CDH   SFRSYM    DATA     BYTE      TMR2H
      000000A1H   SFRSYM    DATA     BYTE      SPI0CFG
      000000C2H   SFRSYM    DATA     BYTE      SMB1DAT
      00000095H   SFRSYM    DATA     BYTE      TMR3H
      00000095H   SFRSYM    DATA     BYTE      TMR4H
      000000CDH   SFRSYM    DATA     BYTE      TMR5H
      000000CCH   SFRSYM    DATA     BYTE      TMR2L
      000000F8H.7 SFRSYM    DATA     BIT       SPI0CN0_SPIF
      00000096H   SFRSYM    DATA     BYTE      USB0ADR
      00000094H   SFRSYM    DATA     BYTE      TMR3L
      000000A8H.7 SFRSYM    DATA     BIT       IE_EA
      00000094H   SFRSYM    DATA     BYTE      TMR4L
      00000097H   SFRSYM    DATA     BYTE      USB0DAT
      000000CCH   SFRSYM    DATA     BYTE      TMR5L
      000000B6H   SFRSYM    DATA     BYTE      FLSCL
      000000C8H.5 SFRSYM    DATA     BIT       TMR2CN0_TF2LEN
      000000F8H.6 SFRSYM    DATA     BIT       SPI0CN0_WCOL
      000000F8H.2 SFRSYM    DATA     BIT       SPI0CN0_NSSMD0
      000000D0H.7 SFRSYM    DATA     BIT       PSW_CY
      000000A3H   SFRSYM    DATA     BYTE      SPI0DAT
      000000F8H.3 SFRSYM    DATA     BIT       SPI0CN0_NSSMD1
      000000BDH   SFRSYM    DATA     WORD      ADC0
      000000B9H   SFRSYM    DATA     BYTE      SMBTC
      000000D0H   SFRSYM    DATA     BYTE      PSW
      000000C8H.5 SFRSYM    DATA     BIT       TMR5CN0_TF5LEN
      000000B7H   SFRSYM    DATA     BYTE      FLKEY
      01001C61H   SYMBOL    CODE     ---       _USB_ReadFIFO_Idata
      01001BCAH   SYMBOL    CODE     ---       _USB_ReadFIFO_Pdata
      01001BA9H   SYMBOL    CODE     ---       _USB_ReadFIFO_Xdata
      01001CDBH   SYMBOL    CODE     ---       _USB_WriteFIFO_Idata
      01001CEFH   SYMBOL    CODE     ---       _USB_WriteFIFO_Pdata
      01001CAFH   SYMBOL    CODE     ---       _USB_WriteFIFO_Xdata
      01001C98H   SYMBOL    CODE     ---       _USB_WriteFIFO_Code

      0100115DH   BLOCK     CODE     ---       LVL=0
      0100115DH   BLOCK     CODE     NEAR LAB  LVL=1
      00000025H   SYMBOL    DATA     BYTE      xferred
      00000020H.0 SYMBOL    BIT      BIT       callback
      ---         BLOCKEND  ---      ---       LVL=1
      0100115DH   LINE      CODE     ---       #126
      0100115DH   LINE      CODE     ---       #127
      0100115DH   LINE      CODE     ---       #131
      01001162H   LINE      CODE     ---       #133
      01001167H   LINE      CODE     ---       #134
      01001167H   LINE      CODE     ---       #135
      01001177H   LINE      CODE     ---       #136
      01001177H   LINE      CODE     ---       #137
      01001181H   LINE      CODE     ---       #138
      01001181H   LINE      CODE     ---       #139
      01001196H   LINE      CODE     ---       #141
      010011A2H   LINE      CODE     ---       #142
      010011AAH   LINE      CODE     ---       #144
      010011B0H   LINE      CODE     ---       #147
      010011BFH   LINE      CODE     ---       #148
LX51 LINKER/LOCATER V4.66.97.0                                                        01/21/2021  22:11:49  PAGE 45


      010011BFH   LINE      CODE     ---       #149
      010011E1H   LINE      CODE     ---       #155
      010011E3H   LINE      CODE     ---       #157
      010011E3H   LINE      CODE     ---       #158
      010011E9H   LINE      CODE     ---       #159
      010011ECH   LINE      CODE     ---       #160
      010011ECH   LINE      CODE     ---       #162
      010011EFH   LINE      CODE     ---       #163
      010011EFH   LINE      CODE     ---       #164
      01001204H   LINE      CODE     ---       #165
      01001204H   LINE      CODE     ---       #167
      01001204H   LINE      CODE     ---       #168
      ---         BLOCKEND  ---      ---       LVL=0

      01000C29H   BLOCK     CODE     ---       LVL=0
      01000C29H   BLOCK     CODE     NEAR LAB  LVL=1
      00000025H   SYMBOL    DATA     BYTE      count
      00000026H   SYMBOL    DATA     CHAR      status
      00000020H.0 SYMBOL    BIT      BIT       xferComplete
      ---         BLOCKEND  ---      ---       LVL=1
      01000C29H   LINE      CODE     ---       #322
      01000C29H   LINE      CODE     ---       #323
      01000C29H   LINE      CODE     ---       #326
      01000C2BH   LINE      CODE     ---       #328
      01000C30H   LINE      CODE     ---       #330
      01000C35H   LINE      CODE     ---       #331
      01000C35H   LINE      CODE     ---       #332
      01000C4AH   LINE      CODE     ---       #333
      01000C4AH   LINE      CODE     ---       #334
      01000C52H   LINE      CODE     ---       #335
      01000C52H   LINE      CODE     ---       #336
      01000C57H   LINE      CODE     ---       #339
      01000C5EH   LINE      CODE     ---       #340
      01000C5EH   LINE      CODE     ---       #341
      01000C63H   LINE      CODE     ---       #342
      01000C66H   LINE      CODE     ---       #343
      01000C68H   LINE      CODE     ---       #345
      01000C74H   LINE      CODE     ---       #346
      01000C74H   LINE      CODE     ---       #347
      01000C78H   LINE      CODE     ---       #348
      01000C7DH   LINE      CODE     ---       #349
      01000C80H   LINE      CODE     ---       #350
      01000C82H   LINE      CODE     ---       #352
      01000C82H   LINE      CODE     ---       #353
      01000C93H   LINE      CODE     ---       #355
      01000C99H   LINE      CODE     ---       #356
      01000CA7H   LINE      CODE     ---       #357
      01000CAFH   LINE      CODE     ---       #359
      01000CBCH   LINE      CODE     ---       #360
      01000CBCH   LINE      CODE     ---       #361
      01000CC0H   LINE      CODE     ---       #362
      01000CC2H   LINE      CODE     ---       #363
      01000CC2H   LINE      CODE     ---       #365
      01000CC5H   LINE      CODE     ---       #366
      01000CD5H   LINE      CODE     ---       #367
      01000CD5H   LINE      CODE     ---       #368
      01000CDFH   LINE      CODE     ---       #369
      01000CDFH   LINE      CODE     ---       #370
      01000CE2H   LINE      CODE     ---       #371
      01000CE2H   LINE      CODE     ---       #372
      01000CE6H   LINE      CODE     ---       #373
      01000CE6H   LINE      CODE     ---       #375
LX51 LINKER/LOCATER V4.66.97.0                                                        01/21/2021  22:11:49  PAGE 46


      01000CFBH   LINE      CODE     ---       #376
      01000CFBH   LINE      CODE     ---       #377
      01000CFBH   LINE      CODE     ---       #378
      ---         BLOCKEND  ---      ---       LVL=0

      010018C3H   BLOCK     CODE     ---       LVL=0
      00000028H   SYMBOL    DATA     BYTE      fifoNum
      00000029H   SYMBOL    DATA     BYTE      numBytes
      0000002AH   SYMBOL    DATA     ---       dat
      010018C3H   LINE      CODE     ---       #688
      010018CDH   LINE      CODE     ---       #689
      010018CDH   LINE      CODE     ---       #690
      010018D8H   LINE      CODE     ---       #691
      010018D8H   LINE      CODE     ---       #692
      010018E3H   LINE      CODE     ---       #699
      010018F0H   LINE      CODE     ---       #700
      010018F0H   LINE      CODE     ---       #701
      010018F0H   LINE      CODE     ---       #702
      010018F9H   LINE      CODE     ---       #703
      010018F9H   LINE      CODE     ---       #714
      010018F9H   LINE      CODE     ---       #715
      01001904H   LINE      CODE     ---       #716
      01001904H   LINE      CODE     ---       #722
      01001904H   LINE      CODE     ---       #723
      0100190DH   LINE      CODE     ---       #724
      0100190DH   LINE      CODE     ---       #727
      0100190DH   LINE      CODE     ---       #728
      0100190DH   LINE      CODE     ---       #729
      0100190DH   LINE      CODE     ---       #736
      0100190DH   LINE      CODE     ---       #737
      ---         BLOCKEND  ---      ---       LVL=0

      0100156DH   BLOCK     CODE     ---       LVL=0
      0000002EH   SYMBOL    DATA     BYTE      fifoNum
      0000002FH   SYMBOL    DATA     BYTE      numBytes
      00000030H   SYMBOL    DATA     ---       dat
      00000020H.2 SYMBOL    BIT      BIT       txPacket
      0100156DH   LINE      CODE     ---       #753
      01001577H   LINE      CODE     ---       #754
      01001577H   LINE      CODE     ---       #755
      01001582H   LINE      CODE     ---       #762
      01001591H   LINE      CODE     ---       #763
      01001591H   LINE      CODE     ---       #764
      01001591H   LINE      CODE     ---       #765
      01001598H   LINE      CODE     ---       #766
      0100159AH   LINE      CODE     ---       #777
      0100159AH   LINE      CODE     ---       #778
      010015A3H   LINE      CODE     ---       #779
      010015A5H   LINE      CODE     ---       #785
      010015A5H   LINE      CODE     ---       #786
      010015ACH   LINE      CODE     ---       #787
      010015AEH   LINE      CODE     ---       #790
      010015AEH   LINE      CODE     ---       #791
      010015B7H   LINE      CODE     ---       #792
      010015B7H   LINE      CODE     ---       #794
      010015B7H   LINE      CODE     ---       #795
      010015B7H   LINE      CODE     ---       #796
      010015B7H   LINE      CODE     ---       #804
      010015C5H   LINE      CODE     ---       #805
      010015C5H   LINE      CODE     ---       #806
      010015CAH   LINE      CODE     ---       #807
      010015DAH   LINE      CODE     ---       #808
LX51 LINKER/LOCATER V4.66.97.0                                                        01/21/2021  22:11:49  PAGE 47


      010015DAH   LINE      CODE     ---       #809
      ---         BLOCKEND  ---      ---       LVL=0

      01001C61H   BLOCK     CODE     ---       LVL=0
      00000007H   SYMBOL    DATA     BYTE      numBytes
      00000000H   SYMBOL    DATA     ---       dat
      00000003H   SYMBOL    DATA     BYTE      fifoNum
      01001C61H   LINE      CODE     ---       #828
      01001C63H   LINE      CODE     ---       #829
      01001C63H   LINE      CODE     ---       #830
      01001C67H   LINE      CODE     ---       #831
      01001C67H   LINE      CODE     ---       #832
      01001C6EH   LINE      CODE     ---       #833
      01001C6FH   LINE      CODE     ---       #834
      01001C71H   LINE      CODE     ---       #835
      01001C7DH   LINE      CODE     ---       #836
      ---         BLOCKEND  ---      ---       LVL=0

      01001CDBH   BLOCK     CODE     ---       LVL=0
      00000007H   SYMBOL    DATA     BYTE      numBytes
      00000000H   SYMBOL    DATA     ---       dat
      01001CDBH   LINE      CODE     ---       #847
      01001CDDH   LINE      CODE     ---       #848
      01001CDDH   LINE      CODE     ---       #849
      01001CE3H   LINE      CODE     ---       #850
      01001CE3H   LINE      CODE     ---       #851
      01001CEBH   LINE      CODE     ---       #852
      01001CECH   LINE      CODE     ---       #853
      01001CEEH   LINE      CODE     ---       #854
      ---         BLOCKEND  ---      ---       LVL=0

      01001BA9H   BLOCK     CODE     ---       LVL=0
      00000007H   SYMBOL    DATA     BYTE      numBytes
      00000082H   SYMBOL    DATA     ---       dat
      00000003H   SYMBOL    DATA     BYTE      fifoNum
      01001BA9H   LINE      CODE     ---       #865
      01001BADH   LINE      CODE     ---       #866
      01001BADH   LINE      CODE     ---       #867
      01001BB1H   LINE      CODE     ---       #868
      01001BB1H   LINE      CODE     ---       #869
      01001BB9H   LINE      CODE     ---       #870
      01001BBAH   LINE      CODE     ---       #871
      01001BBCH   LINE      CODE     ---       #872
      01001BC9H   LINE      CODE     ---       #873
      ---         BLOCKEND  ---      ---       LVL=0

      01001CAFH   BLOCK     CODE     ---       LVL=0
      00000007H   SYMBOL    DATA     BYTE      numBytes
      00000082H   SYMBOL    DATA     ---       dat
      01001CAFH   LINE      CODE     ---       #884
      01001CB3H   LINE      CODE     ---       #885
      01001CB3H   LINE      CODE     ---       #886
      01001CB9H   LINE      CODE     ---       #887
      01001CB9H   LINE      CODE     ---       #888
      01001CC1H   LINE      CODE     ---       #889
      01001CC2H   LINE      CODE     ---       #890
      01001CC4H   LINE      CODE     ---       #891
      ---         BLOCKEND  ---      ---       LVL=0

      01001BCAH   BLOCK     CODE     ---       LVL=0
      00000007H   SYMBOL    DATA     BYTE      numBytes
      00000000H   SYMBOL    DATA     ---       dat
LX51 LINKER/LOCATER V4.66.97.0                                                        01/21/2021  22:11:49  PAGE 48


      00000003H   SYMBOL    DATA     BYTE      fifoNum
      01001BCAH   LINE      CODE     ---       #903
      01001BCCH   LINE      CODE     ---       #904
      01001BCCH   LINE      CODE     ---       #905
      01001BD0H   LINE      CODE     ---       #906
      01001BD0H   LINE      CODE     ---       #907
      01001BD8H   LINE      CODE     ---       #908
      01001BD9H   LINE      CODE     ---       #909
      01001BDBH   LINE      CODE     ---       #910
      01001BE8H   LINE      CODE     ---       #911
      ---         BLOCKEND  ---      ---       LVL=0

      01001CEFH   BLOCK     CODE     ---       LVL=0
      00000007H   SYMBOL    DATA     BYTE      numBytes
      00000000H   SYMBOL    DATA     ---       dat
      01001CEFH   LINE      CODE     ---       #922
      01001CF1H   LINE      CODE     ---       #923
      01001CF1H   LINE      CODE     ---       #924
      01001CF7H   LINE      CODE     ---       #925
      01001CF7H   LINE      CODE     ---       #926
      01001CFFH   LINE      CODE     ---       #927
      01001D00H   LINE      CODE     ---       #928
      01001D02H   LINE      CODE     ---       #929
      ---         BLOCKEND  ---      ---       LVL=0

      01001C98H   BLOCK     CODE     ---       LVL=0
      00000007H   SYMBOL    DATA     BYTE      numBytes
      00000082H   SYMBOL    DATA     ---       dat
      01001C98H   LINE      CODE     ---       #981
      01001C9CH   LINE      CODE     ---       #982
      01001C9CH   LINE      CODE     ---       #983
      01001CA2H   LINE      CODE     ---       #984
      01001CA2H   LINE      CODE     ---       #985
      01001CABH   LINE      CODE     ---       #986
      01001CACH   LINE      CODE     ---       #987
      01001CAEH   LINE      CODE     ---       #988
      ---         BLOCKEND  ---      ---       LVL=0

      ---         MODULE    ---      ---       EFM8_USBDINT
      0100002AH   PUBLIC    CODE     ---       forceModuleLoad_usbint
      0100002EH   PUBLIC    CODE     ---       SendEp0Stall
      010012A5H   PUBLIC    CODE     ---       handleUsbEp0Rx
      01000DC3H   PUBLIC    CODE     ---       usbIrqHandler
      000000A2H   SFRSYM    DATA     BYTE      SPI0CKR
      00000080H   SFRSYM    DATA     BYTE      P0
      000000D0H.2 SFRSYM    DATA     BIT       PSW_OV
      000000B1H   SFRSYM    DATA     BYTE      XOSC0CN
      00000090H   SFRSYM    DATA     BYTE      P1
      000000A0H   SFRSYM    DATA     BYTE      P2
      000000B0H   SFRSYM    DATA     BYTE      P3
      000000BCH   SFRSYM    DATA     BYTE      ADC0CF
      000000C8H.0 SFRSYM    DATA     BIT       TMR2CN0_T2XCLK
      000000C7H   SFRSYM    DATA     BYTE      P4
      000000C0H.7 SFRSYM    DATA     BIT       SMB0CN0_MASTER
      000000F9H   SFRSYM    DATA     WORD      PCA0
      000000E6H   SFRSYM    DATA     BYTE      EIE1
      000000C0H.7 SFRSYM    DATA     BIT       SMB1CN0_MASTER
      000000C0H.1 SFRSYM    DATA     BIT       SMB0CN0_ACK
      000000D7H   SFRSYM    DATA     BYTE      USB0XCN
      000000E7H   SFRSYM    DATA     BYTE      EIE2
      000000C0H.1 SFRSYM    DATA     BIT       SMB1CN0_ACK
      0000008FH   SFRSYM    DATA     BYTE      PSCTL
LX51 LINKER/LOCATER V4.66.97.0                                                        01/21/2021  22:11:49  PAGE 49


      000000E4H   SFRSYM    DATA     BYTE      IT01CF
      000000C8H.0 SFRSYM    DATA     BIT       TMR5CN0_T5XCLK
      000000C0H.6 SFRSYM    DATA     BIT       SMB0CN0_TXMODE
      000000C0H.6 SFRSYM    DATA     BIT       SMB1CN0_TXMODE
      000000BFH   SFRSYM    DATA     BYTE      SFRPAGE
      000000A4H   SFRSYM    DATA     BYTE      P0MDOUT
      000000A5H   SFRSYM    DATA     BYTE      P1MDOUT
      000000E8H.5 SFRSYM    DATA     BIT       ADC0CN0_ADINT
      000000CBH   SFRSYM    DATA     BYTE      TMR2RLH
      000000A6H   SFRSYM    DATA     BYTE      P2MDOUT
      000000A8H   SFRSYM    DATA     BYTE      IE
      00000093H   SFRSYM    DATA     BYTE      TMR3RLH
      000000A7H   SFRSYM    DATA     BYTE      P3MDOUT
      00000093H   SFRSYM    DATA     BYTE      TMR4RLH
      000000AEH   SFRSYM    DATA     BYTE      P4MDOUT
      000000F6H   SFRSYM    DATA     BYTE      EIP1
      000000CBH   SFRSYM    DATA     BYTE      TMR5RLH
      000000F7H   SFRSYM    DATA     BYTE      EIP2
      00000098H.2 SFRSYM    DATA     BIT       SCON0_RB8
      000000CAH   SFRSYM    DATA     BYTE      TMR2RLL
      000000FCH   SFRSYM    DATA     BYTE      PCA0CPH0
      00000092H   SFRSYM    DATA     BYTE      TMR3RLL
      000000EAH   SFRSYM    DATA     BYTE      PCA0CPH1
      00000098H.3 SFRSYM    DATA     BIT       SCON0_TB8
      000000F0H.0 SFRSYM    DATA     BIT       B_B0
      00000082H   SFRSYM    DATA     WORD      DP
      00000092H   SFRSYM    DATA     BYTE      TMR4RLL
      000000ECH   SFRSYM    DATA     BYTE      PCA0CPH2
      000000F0H.1 SFRSYM    DATA     BIT       B_B1
      000000C3H   SFRSYM    DATA     WORD      ADC0GT
      000000CAH   SFRSYM    DATA     BYTE      TMR5RLL
      000000EEH   SFRSYM    DATA     BYTE      PCA0CPH3
      000000F0H.2 SFRSYM    DATA     BIT       B_B2
      000000FBH   SFRSYM    DATA     BYTE      PCA0CPL0
      000000FEH   SFRSYM    DATA     BYTE      PCA0CPH4
      00000085H   SFRSYM    DATA     BYTE      EMI0CF
      000000F0H.3 SFRSYM    DATA     BIT       B_B3
      000000D9H   SFRSYM    DATA     BYTE      PCA0MD
      000000DAH   SFRSYM    DATA     BYTE      PCA0CPM0
      000000E9H   SFRSYM    DATA     BYTE      PCA0CPL1
      000000F0H.4 SFRSYM    DATA     BIT       B_B4
      000000DBH   SFRSYM    DATA     BYTE      PCA0CPM1
      000000EBH   SFRSYM    DATA     BYTE      PCA0CPL2
      000000F0H.5 SFRSYM    DATA     BIT       B_B5
      000000DCH   SFRSYM    DATA     BYTE      PCA0CPM2
      000000EDH   SFRSYM    DATA     BYTE      PCA0CPL3
      000000B8H   SFRSYM    DATA     BYTE      IP
      000000F0H.6 SFRSYM    DATA     BIT       B_B6
      000000C5H   SFRSYM    DATA     WORD      ADC0LT
      000000DDH   SFRSYM    DATA     BYTE      PCA0CPM3
      000000FDH   SFRSYM    DATA     BYTE      PCA0CPL4
      00000098H.5 SFRSYM    DATA     BIT       SCON0_MCE
      000000F0H.7 SFRSYM    DATA     BIT       B_B7
      000000DEH   SFRSYM    DATA     BYTE      PCA0CPM4
      000000E1H   SFRSYM    DATA     BYTE      XBR0
      000000C1H   SFRSYM    DATA     BYTE      SMB0CF
      000000E2H   SFRSYM    DATA     BYTE      XBR1
      000000C1H   SFRSYM    DATA     BYTE      SMB1CF
      000000AFH   SFRSYM    DATA     BYTE      PFE0CN
      000000AAH   SFRSYM    DATA     BYTE      EMI0CN
      000000C0H.5 SFRSYM    DATA     BIT       SMB0CN0_STA
      000000E3H   SFRSYM    DATA     BYTE      XBR2
LX51 LINKER/LOCATER V4.66.97.0                                                        01/21/2021  22:11:49  PAGE 50


      000000C0H.5 SFRSYM    DATA     BIT       SMB1CN0_STA
      000000E0H.0 SFRSYM    DATA     BIT       ACC_ACC0
      000000D1H   SFRSYM    DATA     BYTE      REF0CN
      000000B2H   SFRSYM    DATA     BYTE      HFO0CN
      0000008EH   SFRSYM    DATA     BYTE      CKCON0
      000000E0H.1 SFRSYM    DATA     BIT       ACC_ACC1
      000000E4H   SFRSYM    DATA     BYTE      CKCON1
      000000C8H.2 SFRSYM    DATA     BIT       TMR2CN0_TR2
      000000E0H.2 SFRSYM    DATA     BIT       ACC_ACC2
      000000E0H.3 SFRSYM    DATA     BIT       ACC_ACC3
      00000081H   SFRSYM    DATA     BYTE      SP
      0000009DH   SFRSYM    DATA     BYTE      CMP0MD
      000000E0H.4 SFRSYM    DATA     BIT       ACC_ACC4
      00000086H   SFRSYM    DATA     BYTE      LFO0CN
      00000084H   SFRSYM    DATA     BYTE      EMI0TC
      0000009CH   SFRSYM    DATA     BYTE      CMP1MD
      000000D8H.0 SFRSYM    DATA     BIT       PCA0CN0_CCF0
      000000E0H.5 SFRSYM    DATA     BIT       ACC_ACC5
      000000D8H.1 SFRSYM    DATA     BIT       PCA0CN0_CCF1
      000000E0H.6 SFRSYM    DATA     BIT       ACC_ACC6
      000000CCH   SFRSYM    DATA     WORD      TMR2
      000000D8H.2 SFRSYM    DATA     BIT       PCA0CN0_CCF2
      000000E0H.7 SFRSYM    DATA     BIT       ACC_ACC7
      00000094H   SFRSYM    DATA     WORD      TMR3
      000000C8H.2 SFRSYM    DATA     BIT       TMR5CN0_TR5
      000000D8H.3 SFRSYM    DATA     BIT       PCA0CN0_CCF3
      00000094H   SFRSYM    DATA     WORD      TMR4
      000000ACH   SFRSYM    DATA     BYTE      SBCON1
      000000D8H.4 SFRSYM    DATA     BIT       PCA0CN0_CCF4
      000000CCH   SFRSYM    DATA     WORD      TMR5
      000000C0H.3 SFRSYM    DATA     BIT       SMB0CN0_ACKRQ
      000000FFH   SFRSYM    DATA     BYTE      VDM0CN
      000000F1H   SFRSYM    DATA     BYTE      P0MDIN
      000000C0H.3 SFRSYM    DATA     BIT       SMB1CN0_ACKRQ
      00000098H.4 SFRSYM    DATA     BIT       SCON0_REN
      000000F2H   SFRSYM    DATA     BYTE      P1MDIN
      000000F3H   SFRSYM    DATA     BYTE      P2MDIN
      000000C0H.4 SFRSYM    DATA     BIT       SMB0CN0_STO
      000000F4H   SFRSYM    DATA     BYTE      P3MDIN
      000000C0H.4 SFRSYM    DATA     BIT       SMB1CN0_STO
      000000B5H   SFRSYM    DATA     BYTE      SBRLH1
      000000F5H   SFRSYM    DATA     BYTE      P4MDIN
      000000D0H.3 SFRSYM    DATA     BIT       PSW_RS0
      000000D8H.7 SFRSYM    DATA     BIT       PCA0CN0_CF
      000000F8H.4 SFRSYM    DATA     BIT       SPI0CN0_RXOVRN
      000000D0H.4 SFRSYM    DATA     BIT       PSW_RS1
      000000B4H   SFRSYM    DATA     BYTE      SBRLL1
      000000E8H.7 SFRSYM    DATA     BIT       ADC0CN0_ADEN
      00000089H   SFRSYM    DATA     BYTE      TMOD
      00000088H   SFRSYM    DATA     BYTE      TCON
      000000D0H.0 SFRSYM    DATA     BIT       PSW_PARITY
      000000A8H.4 SFRSYM    DATA     BIT       IE_ES0
      0000009FH   SFRSYM    DATA     BYTE      CMP0MX
      000000A8H.1 SFRSYM    DATA     BIT       IE_ET0
      0000009EH   SFRSYM    DATA     BYTE      CMP1MX
      000000A8H.3 SFRSYM    DATA     BIT       IE_ET1
      000000D4H   SFRSYM    DATA     BYTE      P0SKIP
      000000C8H.1 SFRSYM    DATA     BIT       TMR2CN0_T2CSS
      000000A8H.5 SFRSYM    DATA     BIT       IE_ET2
      000000D5H   SFRSYM    DATA     BYTE      P1SKIP
      000000D6H   SFRSYM    DATA     BYTE      P2SKIP
      000000E8H   SFRSYM    DATA     BYTE      ADC0CN0
LX51 LINKER/LOCATER V4.66.97.0                                                        01/21/2021  22:11:49  PAGE 51


      000000A8H.0 SFRSYM    DATA     BIT       IE_EX0
      000000DFH   SFRSYM    DATA     BYTE      P3SKIP
      000000D8H.6 SFRSYM    DATA     BIT       PCA0CN0_CR
      000000A8H.2 SFRSYM    DATA     BIT       IE_EX1
      00000098H.7 SFRSYM    DATA     BIT       SCON0_SMODE
      000000A9H   SFRSYM    DATA     BYTE      CLKSEL
      000000F8H.0 SFRSYM    DATA     BIT       SPI0CN0_SPIEN
      000000F0H   SFRSYM    DATA     BYTE      B
      000000BEH   SFRSYM    DATA     BYTE      ADC0H
      000000E8H.6 SFRSYM    DATA     BIT       ADC0CN0_ADTM
      000000CAH   SFRSYM    DATA     WORD      TMR2RL
      000000BDH   SFRSYM    DATA     BYTE      ADC0L
      00000092H   SFRSYM    DATA     WORD      TMR3RL
      00000092H   SFRSYM    DATA     WORD      TMR4RL
      000000D8H   SFRSYM    DATA     BYTE      PCA0CN0
      000000E0H   SFRSYM    DATA     BYTE      ACC
      000000CAH   SFRSYM    DATA     WORD      TMR5RL
      000000FBH   SFRSYM    DATA     WORD      PCA0CP0
      000000E9H   SFRSYM    DATA     WORD      PCA0CP1
      000000EBH   SFRSYM    DATA     WORD      PCA0CP2
      000000EDH   SFRSYM    DATA     WORD      PCA0CP3
      0000008CH   SFRSYM    DATA     BYTE      TH0
      000000B8H.4 SFRSYM    DATA     BIT       IP_PS0
      000000FDH   SFRSYM    DATA     WORD      PCA0CP4
      0000008DH   SFRSYM    DATA     BYTE      TH1
      000000FAH   SFRSYM    DATA     BYTE      PCA0H
      000000B8H.1 SFRSYM    DATA     BIT       IP_PT0
      000000B8H.3 SFRSYM    DATA     BIT       IP_PT1
      000000C0H.2 SFRSYM    DATA     BIT       SMB0CN0_ARBLOST
      000000B8H.5 SFRSYM    DATA     BIT       IP_PT2
      0000008AH   SFRSYM    DATA     BYTE      TL0
      000000F8H.1 SFRSYM    DATA     BIT       SPI0CN0_TXBMT
      000000C0H.2 SFRSYM    DATA     BIT       SMB1CN0_ARBLOST
      000000D0H.5 SFRSYM    DATA     BIT       PSW_F0
      000000A8H.6 SFRSYM    DATA     BIT       IE_ESPI0
      0000008BH   SFRSYM    DATA     BYTE      TL1
      000000F9H   SFRSYM    DATA     BYTE      PCA0L
      000000C0H.0 SFRSYM    DATA     BIT       SMB0CN0_SI
      000000D0H.1 SFRSYM    DATA     BIT       PSW_F1
      00000080H.0 SFRSYM    DATA     BIT       P0_B0
      000000B8H.0 SFRSYM    DATA     BIT       IP_PX0
      000000C9H   SFRSYM    DATA     BYTE      REG01CN
      000000C0H.0 SFRSYM    DATA     BIT       SMB1CN0_SI
      00000090H.0 SFRSYM    DATA     BIT       P1_B0
      00000080H.1 SFRSYM    DATA     BIT       P0_B1
      000000B8H.2 SFRSYM    DATA     BIT       IP_PX1
      0000009BH   SFRSYM    DATA     BYTE      CMP0CN0
      00000088H.1 SFRSYM    DATA     BIT       TCON_IE0
      000000A0H.0 SFRSYM    DATA     BIT       P2_B0
      00000090H.1 SFRSYM    DATA     BIT       P1_B1
      00000080H.2 SFRSYM    DATA     BIT       P0_B2
      0000009AH   SFRSYM    DATA     BYTE      CMP1CN0
      00000088H.3 SFRSYM    DATA     BIT       TCON_IE1
      000000B0H.0 SFRSYM    DATA     BIT       P3_B0
      000000A0H.1 SFRSYM    DATA     BIT       P2_B1
      00000090H.2 SFRSYM    DATA     BIT       P1_B2
      00000080H.3 SFRSYM    DATA     BIT       P0_B3
      000000C0H   SFRSYM    DATA     BYTE      SMB0CN0
      000000B0H.1 SFRSYM    DATA     BIT       P3_B1
      000000A0H.2 SFRSYM    DATA     BIT       P2_B2
      00000090H.3 SFRSYM    DATA     BIT       P1_B3
      00000080H.4 SFRSYM    DATA     BIT       P0_B4
LX51 LINKER/LOCATER V4.66.97.0                                                        01/21/2021  22:11:49  PAGE 52


      000000C0H   SFRSYM    DATA     BYTE      SMB1CN0
      000000B0H.2 SFRSYM    DATA     BIT       P3_B2
      000000A0H.3 SFRSYM    DATA     BIT       P2_B3
      00000090H.4 SFRSYM    DATA     BIT       P1_B4
      00000080H.5 SFRSYM    DATA     BIT       P0_B5
      000000B0H.3 SFRSYM    DATA     BIT       P3_B3
      000000A0H.4 SFRSYM    DATA     BIT       P2_B4
      00000090H.5 SFRSYM    DATA     BIT       P1_B5
      00000080H.6 SFRSYM    DATA     BIT       P0_B6
      000000B0H.4 SFRSYM    DATA     BIT       P3_B4
      000000A0H.5 SFRSYM    DATA     BIT       P2_B5
      00000090H.6 SFRSYM    DATA     BIT       P1_B6
      00000080H.7 SFRSYM    DATA     BIT       P0_B7
      000000B0H.5 SFRSYM    DATA     BIT       P3_B5
      000000A0H.6 SFRSYM    DATA     BIT       P2_B6
      00000090H.7 SFRSYM    DATA     BIT       P1_B7
      000000B0H.6 SFRSYM    DATA     BIT       P3_B6
      000000A0H.7 SFRSYM    DATA     BIT       P2_B7
      000000B0H.7 SFRSYM    DATA     BIT       P3_B7
      00000083H   SFRSYM    DATA     BYTE      DPH
      000000C4H   SFRSYM    DATA     BYTE      ADC0GTH
      000000C8H.7 SFRSYM    DATA     BIT       TMR2CN0_TF2H
      000000C8H.3 SFRSYM    DATA     BIT       TMR2CN0_T2SPLIT
      000000D0H.6 SFRSYM    DATA     BIT       PSW_AC
      000000F8H   SFRSYM    DATA     BYTE      SPI0CN0
      000000B3H   SFRSYM    DATA     BYTE      HFO0CAL
      00000088H.5 SFRSYM    DATA     BIT       TCON_TF0
      00000098H.0 SFRSYM    DATA     BIT       SCON0_RI
      00000082H   SFRSYM    DATA     BYTE      DPL
      00000088H.7 SFRSYM    DATA     BIT       TCON_TF1
      00000099H   SFRSYM    DATA     BYTE      SBUF0
      00000087H   SFRSYM    DATA     BYTE      PCON0
      000000C3H   SFRSYM    DATA     BYTE      ADC0GTL
      000000C8H.6 SFRSYM    DATA     BIT       TMR2CN0_TF2L
      00000098H.1 SFRSYM    DATA     BIT       SCON0_TI
      000000E8H.0 SFRSYM    DATA     BIT       ADC0CN0_ADCM0
      000000D3H   SFRSYM    DATA     BYTE      SBUF1
      000000C6H   SFRSYM    DATA     BYTE      ADC0LTH
      00000088H.0 SFRSYM    DATA     BIT       TCON_IT0
      000000E8H.1 SFRSYM    DATA     BIT       ADC0CN0_ADCM1
      000000EFH   SFRSYM    DATA     BYTE      RSTSRC
      000000C8H.7 SFRSYM    DATA     BIT       TMR5CN0_TF5H
      000000C8H.3 SFRSYM    DATA     BIT       TMR5CN0_T5SPLIT
      00000088H.2 SFRSYM    DATA     BIT       TCON_IT1
      000000E8H.2 SFRSYM    DATA     BIT       ADC0CN0_ADCM2
      00000098H   SFRSYM    DATA     BYTE      SCON0
      000000E8H.3 SFRSYM    DATA     BIT       ADC0CN0_ADWINT
      000000B4H   SFRSYM    DATA     WORD      SBRL1
      000000E5H   SFRSYM    DATA     BYTE      SMOD1
      000000D2H   SFRSYM    DATA     BYTE      SCON1
      000000BAH   SFRSYM    DATA     BYTE      AMX0N
      000000E8H.4 SFRSYM    DATA     BIT       ADC0CN0_ADBUSY
      000000CEH   SFRSYM    DATA     BYTE      SMB0ADM
      000000C5H   SFRSYM    DATA     BYTE      ADC0LTL
      000000F8H.5 SFRSYM    DATA     BIT       SPI0CN0_MODF
      000000B8H.6 SFRSYM    DATA     BIT       IP_PSPI0
      000000CEH   SFRSYM    DATA     BYTE      SMB1ADM
      000000BBH   SFRSYM    DATA     BYTE      AMX0P
      000000C8H.6 SFRSYM    DATA     BIT       TMR5CN0_TF5L
      000000C8H   SFRSYM    DATA     BYTE      TMR2CN0
      00000091H   SFRSYM    DATA     BYTE      TMR3CN0
      00000091H   SFRSYM    DATA     BYTE      TMR4CN0
LX51 LINKER/LOCATER V4.66.97.0                                                        01/21/2021  22:11:49  PAGE 53


      000000C8H   SFRSYM    DATA     BYTE      TMR5CN0
      000000CFH   SFRSYM    DATA     BYTE      SMB0ADR
      00000088H.4 SFRSYM    DATA     BIT       TCON_TR0
      000000CFH   SFRSYM    DATA     BYTE      SMB1ADR
      000000C8H.4 SFRSYM    DATA     BIT       TMR2CN0_TF2CEN
      00000088H.6 SFRSYM    DATA     BIT       TCON_TR1
      000000C2H   SFRSYM    DATA     BYTE      SMB0DAT
      000000CDH   SFRSYM    DATA     BYTE      TMR2H
      000000A1H   SFRSYM    DATA     BYTE      SPI0CFG
      000000C2H   SFRSYM    DATA     BYTE      SMB1DAT
      00000095H   SFRSYM    DATA     BYTE      TMR3H
      00000095H   SFRSYM    DATA     BYTE      TMR4H
      000000CDH   SFRSYM    DATA     BYTE      TMR5H
      000000CCH   SFRSYM    DATA     BYTE      TMR2L
      000000F8H.7 SFRSYM    DATA     BIT       SPI0CN0_SPIF
      00000096H   SFRSYM    DATA     BYTE      USB0ADR
      00000094H   SFRSYM    DATA     BYTE      TMR3L
      000000A8H.7 SFRSYM    DATA     BIT       IE_EA
      00000094H   SFRSYM    DATA     BYTE      TMR4L
      00000097H   SFRSYM    DATA     BYTE      USB0DAT
      000000CCH   SFRSYM    DATA     BYTE      TMR5L
      000000B6H   SFRSYM    DATA     BYTE      FLSCL
      000000C8H.5 SFRSYM    DATA     BIT       TMR2CN0_TF2LEN
      000000F8H.6 SFRSYM    DATA     BIT       SPI0CN0_WCOL
      000000F8H.2 SFRSYM    DATA     BIT       SPI0CN0_NSSMD0
      000000D0H.7 SFRSYM    DATA     BIT       PSW_CY
      000000A3H   SFRSYM    DATA     BYTE      SPI0DAT
      000000F8H.3 SFRSYM    DATA     BIT       SPI0CN0_NSSMD1
      000000BDH   SFRSYM    DATA     WORD      ADC0
      000000B9H   SFRSYM    DATA     BYTE      SMBTC
      000000D0H   SFRSYM    DATA     BYTE      PSW
      000000C8H.5 SFRSYM    DATA     BIT       TMR5CN0_TF5LEN
      000000B7H   SFRSYM    DATA     BYTE      FLKEY
      01001774H   SYMBOL    CODE     ---       USB_ReadFIFOSetup
      01000B45H   SYMBOL    CODE     ---       handleUsbEp0Int
      01001D17H   SYMBOL    CODE     ---       handleUsbSuspendInt
      01001E5AH   SYMBOL    CODE     ---       handleUsbResumeInt
      010012A5H   SYMBOL    CODE     ---       handleUsbEp0Rx
      01000818H   SYMBOL    CODE     ---       handleUsbEp0Tx
      0100194DH   SYMBOL    CODE     ---       handleUsbResetInt

      01000DC3H   BLOCK     CODE     ---       LVL=0
      01000DE0H   BLOCK     CODE     NEAR LAB  LVL=1
      00000021H   SYMBOL    DATA     BYTE      statusCommon
      00000022H   SYMBOL    DATA     BYTE      statusIn
      00000023H   SYMBOL    DATA     BYTE      statusOut
      00000024H   SYMBOL    DATA     BYTE      indexSave
      ---         BLOCKEND  ---      ---       LVL=1
      01000DC3H   LINE      CODE     ---       #67
      01000DE0H   LINE      CODE     ---       #80
      01000DE5H   LINE      CODE     ---       #81
      01000DEAH   LINE      CODE     ---       #82
      01000DEFH   LINE      CODE     ---       #92
      01000DF4H   LINE      CODE     ---       #95
      01000DF9H   LINE      CODE     ---       #96
      01000DF9H   LINE      CODE     ---       #98
      01000DFFH   LINE      CODE     ---       #103
      01000E21H   LINE      CODE     ---       #105
      01000E21H   LINE      CODE     ---       #106
      01000E24H   LINE      CODE     ---       #107
      01000E24H   LINE      CODE     ---       #111
      01000E36H   LINE      CODE     ---       #112
LX51 LINKER/LOCATER V4.66.97.0                                                        01/21/2021  22:11:49  PAGE 54


      01000E36H   LINE      CODE     ---       #113
      01000E39H   LINE      CODE     ---       #114
      01000E39H   LINE      CODE     ---       #134
      01000E39H   LINE      CODE     ---       #136
      01000E3EH   LINE      CODE     ---       #137
      01000E3EH   LINE      CODE     ---       #138
      01000E41H   LINE      CODE     ---       #147
      01000E41H   LINE      CODE     ---       #149
      01000E46H   LINE      CODE     ---       #150
      01000E46H   LINE      CODE     ---       #151
      01000E49H   LINE      CODE     ---       #152
      01000E49H   LINE      CODE     ---       #154
      01000E4EH   LINE      CODE     ---       #155
      01000E4EH   LINE      CODE     ---       #156
      01000E51H   LINE      CODE     ---       #157
      01000E51H   LINE      CODE     ---       #181
      01000E56H   LINE      CODE     ---       #182
      01000E56H   LINE      CODE     ---       #183
      01000E59H   LINE      CODE     ---       #184
      01000E59H   LINE      CODE     ---       #195
      01000E5EH   LINE      CODE     ---       #196
      01000E5EH   LINE      CODE     ---       #197
      01000E61H   LINE      CODE     ---       #198
      01000E61H   LINE      CODE     ---       #202
      01000E66H   LINE      CODE     ---       #203
      01000E66H   LINE      CODE     ---       #204
      01000E69H   LINE      CODE     ---       #205
      01000E69H   LINE      CODE     ---       #208
      01000E6EH   LINE      CODE     ---       #214
      ---         BLOCKEND  ---      ---       LVL=0

      01000B45H   BLOCK     CODE     ---       LVL=0
      01000B45H   BLOCK     CODE     NEAR LAB  LVL=1
      00000025H   SYMBOL    DATA     CHAR      retVal
      ---         BLOCKEND  ---      ---       LVL=1
      01000B45H   LINE      CODE     ---       #219
      01000B45H   LINE      CODE     ---       #220
      01000B45H   LINE      CODE     ---       #221
      01000B48H   LINE      CODE     ---       #223
      01000B4DH   LINE      CODE     ---       #225
      01000B57H   LINE      CODE     ---       #226
      01000B57H   LINE      CODE     ---       #227
      01000B62H   LINE      CODE     ---       #228
      01000B6DH   LINE      CODE     ---       #229
      01000B71H   LINE      CODE     ---       #230
      01000B74H   LINE      CODE     ---       #231
      01000B74H   LINE      CODE     ---       #232
      01000B7CH   LINE      CODE     ---       #233
      01000B7CH   LINE      CODE     ---       #234
      01000B89H   LINE      CODE     ---       #235
      01000B89H   LINE      CODE     ---       #236
      01000B8AH   LINE      CODE     ---       #237
      01000B8DH   LINE      CODE     ---       #238
      01000B94H   LINE      CODE     ---       #239
      01000B94H   LINE      CODE     ---       #240
      01000B97H   LINE      CODE     ---       #241
      01000B9AH   LINE      CODE     ---       #245
      01000BA1H   LINE      CODE     ---       #247
      01000BACH   LINE      CODE     ---       #248
      01000BACH   LINE      CODE     ---       #250
      01000BB6H   LINE      CODE     ---       #251
      01000BB6H   LINE      CODE     ---       #252
LX51 LINKER/LOCATER V4.66.97.0                                                        01/21/2021  22:11:49  PAGE 55


      01000BBBH   LINE      CODE     ---       #253
      01000BBBH   LINE      CODE     ---       #255
      01000BBBH   LINE      CODE     ---       #260
      01000BC0H   LINE      CODE     ---       #263
      01000BC9H   LINE      CODE     ---       #264
      01000BC9H   LINE      CODE     ---       #267
      01000BD0H   LINE      CODE     ---       #268
      01000BD0H   LINE      CODE     ---       #269
      01000BDDH   LINE      CODE     ---       #270
      01000BDDH   LINE      CODE     ---       #274
      01000BDDH   LINE      CODE     ---       #275
      01000BE8H   LINE      CODE     ---       #281
      01000BFBH   LINE      CODE     ---       #283
      01000BFBH   LINE      CODE     ---       #284
      01000C00H   LINE      CODE     ---       #285
      01000C00H   LINE      CODE     ---       #287
      01000C00H   LINE      CODE     ---       #288
      01000C02H   LINE      CODE     ---       #291
      01000C02H   LINE      CODE     ---       #292
      01000C05H   LINE      CODE     ---       #293
      01000C05H   LINE      CODE     ---       #294
      01000C07H   LINE      CODE     ---       #295
      01000C0EH   LINE      CODE     ---       #296
      01000C0EH   LINE      CODE     ---       #297
      01000C11H   LINE      CODE     ---       #298
      01000C13H   LINE      CODE     ---       #300
      01000C13H   LINE      CODE     ---       #301
      01000C19H   LINE      CODE     ---       #302
      01000C19H   LINE      CODE     ---       #303
      01000C19H   LINE      CODE     ---       #304
      01000C25H   LINE      CODE     ---       #305
      01000C25H   LINE      CODE     ---       #306
      01000C28H   LINE      CODE     ---       #307
      01000C28H   LINE      CODE     ---       #308
      ---         BLOCKEND  ---      ---       LVL=0

      01001774H   BLOCK     CODE     ---       LVL=0
      01001774H   BLOCK     CODE     NEAR LAB  LVL=1
      00000026H   SYMBOL    DATA     ---       ptr
      ---         BLOCKEND  ---      ---       LVL=1
      01001774H   LINE      CODE     ---       #313
      01001774H   LINE      CODE     ---       #314
      01001774H   LINE      CODE     ---       #315
      01001777H   LINE      CODE     ---       #317
      01001784H   LINE      CODE     ---       #320
      0100179CH   LINE      CODE     ---       #321
      010017B4H   LINE      CODE     ---       #322
      010017CCH   LINE      CODE     ---       #323
      ---         BLOCKEND  ---      ---       LVL=0

      0100194DH   BLOCK     CODE     ---       LVL=0
      0100194DH   LINE      CODE     ---       #330
      0100194DH   LINE      CODE     ---       #331
      0100194DH   LINE      CODE     ---       #333
      01001951H   LINE      CODE     ---       #337
      01001955H   LINE      CODE     ---       #346
      01001959H   LINE      CODE     ---       #361
      01001964H   LINE      CODE     ---       #368
      0100196FH   LINE      CODE     ---       #369
      0100197AH   LINE      CODE     ---       #376
      01001980H   LINE      CODE     ---       #377
      01001980H   LINE      CODE     ---       #378
LX51 LINKER/LOCATER V4.66.97.0                                                        01/21/2021  22:11:49  PAGE 56


      01001982H   LINE      CODE     ---       #379
      01001984H   LINE      CODE     ---       #381
      01001984H   LINE      CODE     ---       #382
      01001989H   LINE      CODE     ---       #383
      01001989H   LINE      CODE     ---       #390
      ---         BLOCKEND  ---      ---       LVL=0

      01001D17H   BLOCK     CODE     ---       LVL=0
      01001D17H   LINE      CODE     ---       #400
      01001D17H   LINE      CODE     ---       #401
      01001D17H   LINE      CODE     ---       #402
      01001D23H   LINE      CODE     ---       #403
      01001D23H   LINE      CODE     ---       #404
      01001D28H   LINE      CODE     ---       #409
      01001D28H   LINE      CODE     ---       #410
      ---         BLOCKEND  ---      ---       LVL=0

      01001E5AH   BLOCK     CODE     ---       LVL=0
      01001E5AH   LINE      CODE     ---       #416
      01001E5AH   LINE      CODE     ---       #417
      01001E5AH   LINE      CODE     ---       #418
      ---         BLOCKEND  ---      ---       LVL=0

      01000818H   BLOCK     CODE     ---       LVL=0
      01000818H   BLOCK     CODE     NEAR LAB  LVL=1
      00000026H   SYMBOL    DATA     BYTE      count
      00000027H   SYMBOL    DATA     BYTE      count_snapshot
      00000028H   SYMBOL    DATA     BYTE      i
      00000020H.0 SYMBOL    BIT      BIT       callback
      ---         BLOCKEND  ---      ---       LVL=1
      01000818H   LINE      CODE     ---       #424
      01000818H   LINE      CODE     ---       #425
      01000818H   LINE      CODE     ---       #427
      0100081EH   LINE      CODE     ---       #431
      01000833H   LINE      CODE     ---       #435
      01000836H   LINE      CODE     ---       #441
      01000840H   LINE      CODE     ---       #446
      01000840H   LINE      CODE     ---       #451
      0100084BH   LINE      CODE     ---       #452
      0100084BH   LINE      CODE     ---       #453
      0100085DH   LINE      CODE     ---       #454
      01000867H   LINE      CODE     ---       #455
      0100086BH   LINE      CODE     ---       #456
      01000871H   LINE      CODE     ---       #457
      01000871H   LINE      CODE     ---       #460
      0100087FH   LINE      CODE     ---       #461
      0100087FH   LINE      CODE     ---       #487
      0100087FH   LINE      CODE     ---       #488
      01000892H   LINE      CODE     ---       #489
      0100089CH   LINE      CODE     ---       #490
      010008ABH   LINE      CODE     ---       #491
      010008ABH   LINE      CODE     ---       #492
      010008AFH   LINE      CODE     ---       #493
      010008AFH   LINE      CODE     ---       #497
      010008AFH   LINE      CODE     ---       #498
      010008C2H   LINE      CODE     ---       #499
      010008CCH   LINE      CODE     ---       #500
      010008CCH   LINE      CODE     ---       #502
      010008D2H   LINE      CODE     ---       #503
      010008E2H   LINE      CODE     ---       #508
      010008EDH   LINE      CODE     ---       #510
      010008EDH   LINE      CODE     ---       #511
LX51 LINKER/LOCATER V4.66.97.0                                                        01/21/2021  22:11:49  PAGE 57


      010008F8H   LINE      CODE     ---       #512
      010008FCH   LINE      CODE     ---       #513
      01000900H   LINE      CODE     ---       #514
      01000903H   LINE      CODE     ---       #515
      01000905H   LINE      CODE     ---       #517
      01000905H   LINE      CODE     ---       #518
      01000910H   LINE      CODE     ---       #524
      01000917H   LINE      CODE     ---       #525
      01000917H   LINE      CODE     ---       #526
      0100091DH   LINE      CODE     ---       #527
      0100091DH   LINE      CODE     ---       #528
      0100091DH   LINE      CODE     ---       #530
      01000920H   LINE      CODE     ---       #531
      01000920H   LINE      CODE     ---       #532
      01000934H   LINE      CODE     ---       #533
      01000934H   LINE      CODE     ---       #534
      ---         BLOCKEND  ---      ---       LVL=0

      010012A5H   BLOCK     CODE     ---       LVL=0
      010012A5H   BLOCK     CODE     NEAR LAB  LVL=1
      00000026H   SYMBOL    DATA     BYTE      count
      00000027H   SYMBOL    DATA     CHAR      status
      00000020H.0 SYMBOL    BIT      BIT       callback
      ---         BLOCKEND  ---      ---       LVL=1
      010012A5H   LINE      CODE     ---       #539
      010012A5H   LINE      CODE     ---       #540
      010012A5H   LINE      CODE     ---       #543
      010012ABH   LINE      CODE     ---       #546
      010012B0H   LINE      CODE     ---       #550
      010012BBH   LINE      CODE     ---       #551
      010012BBH   LINE      CODE     ---       #552
      010012BFH   LINE      CODE     ---       #553
      010012C4H   LINE      CODE     ---       #554
      010012C7H   LINE      CODE     ---       #555
      010012C9H   LINE      CODE     ---       #557
      010012C9H   LINE      CODE     ---       #558
      010012DAH   LINE      CODE     ---       #559
      010012E7H   LINE      CODE     ---       #560
      010012F5H   LINE      CODE     ---       #561
      010012F8H   LINE      CODE     ---       #567
      01001302H   LINE      CODE     ---       #568
      01001302H   LINE      CODE     ---       #569
      0100130DH   LINE      CODE     ---       #570
      01001311H   LINE      CODE     ---       #571
      01001316H   LINE      CODE     ---       #572
      01001318H   LINE      CODE     ---       #574
      01001318H   LINE      CODE     ---       #576
      01001323H   LINE      CODE     ---       #577
      01001323H   LINE      CODE     ---       #578
      01001323H   LINE      CODE     ---       #581
      01001326H   LINE      CODE     ---       #582
      01001326H   LINE      CODE     ---       #583
      0100133BH   LINE      CODE     ---       #584
      0100133BH   LINE      CODE     ---       #585
      ---         BLOCKEND  ---      ---       LVL=0

      0100002EH   BLOCK     CODE     ---       LVL=0
      0100002EH   LINE      CODE     ---       #591
      0100002EH   LINE      CODE     ---       #592
      0100002EH   LINE      CODE     ---       #593
      01000033H   LINE      CODE     ---       #594
      01000037H   LINE      CODE     ---       #595
LX51 LINKER/LOCATER V4.66.97.0                                                        01/21/2021  22:11:49  PAGE 58


      01000042H   LINE      CODE     ---       #596
      ---         BLOCKEND  ---      ---       LVL=0

      0100002AH   BLOCK     CODE     ---       LVL=0
      0100002AH   LINE      CODE     ---       #694
      ---         BLOCKEND  ---      ---       LVL=0

      ---         MODULE    ---      ---       USB_0
      01001E78H   PUBLIC    CODE     ---       USB_GetSofNumber
      00000020H.1 PUBLIC    BIT      BIT       ?_USB_ActivateEp?BIT
      010014E6H   PUBLIC    CODE     ---       _USB_ActivateEp
      01001A6BH   PUBLIC    CODE     ---       _USB_AbortOutEp
      01001E73H   PUBLIC    CODE     ---       USB_EpOutGetCount
      01001DC7H   PUBLIC    CODE     ---       USB_EpnGetOutPacketReady
      01001D6DH   PUBLIC    CODE     ---       USB_EpnOutGetSentStall
      01001A37H   PUBLIC    CODE     ---       _USB_AbortInEp
      01001D60H   PUBLIC    CODE     ---       USB_EpnInGetSentStall
      01001E15H   PUBLIC    CODE     ---       USB_Ep0GetCount
      01001D53H   PUBLIC    CODE     ---       USB_Ep0InPacketReady
      01001DBBH   PUBLIC    CODE     ---       USB_Ep0OutPacketReady
      01001D46H   PUBLIC    CODE     ---       USB_Ep0SentStall
      01001D39H   PUBLIC    CODE     ---       USB_GetSetupEnd
      01001E0AH   PUBLIC    CODE     ---       USB_GetIndex
      01001DFFH   PUBLIC    CODE     ---       USB_GetOutInts
      01001DF4H   PUBLIC    CODE     ---       USB_GetInInts
      01001DE9H   PUBLIC    CODE     ---       USB_GetCommonInts
      01001DDEH   PUBLIC    CODE     ---       _USB_SetIndex
      000000A2H   SFRSYM    DATA     BYTE      SPI0CKR
      00000080H   SFRSYM    DATA     BYTE      P0
      000000D0H.2 SFRSYM    DATA     BIT       PSW_OV
      000000B1H   SFRSYM    DATA     BYTE      XOSC0CN
      00000090H   SFRSYM    DATA     BYTE      P1
      000000A0H   SFRSYM    DATA     BYTE      P2
      000000B0H   SFRSYM    DATA     BYTE      P3
      000000BCH   SFRSYM    DATA     BYTE      ADC0CF
      000000C8H.0 SFRSYM    DATA     BIT       TMR2CN0_T2XCLK
      000000C7H   SFRSYM    DATA     BYTE      P4
      000000C0H.7 SFRSYM    DATA     BIT       SMB0CN0_MASTER
      000000F9H   SFRSYM    DATA     WORD      PCA0
      000000E6H   SFRSYM    DATA     BYTE      EIE1
      000000C0H.7 SFRSYM    DATA     BIT       SMB1CN0_MASTER
      000000C0H.1 SFRSYM    DATA     BIT       SMB0CN0_ACK
      000000D7H   SFRSYM    DATA     BYTE      USB0XCN
      000000E7H   SFRSYM    DATA     BYTE      EIE2
      000000C0H.1 SFRSYM    DATA     BIT       SMB1CN0_ACK
      0000008FH   SFRSYM    DATA     BYTE      PSCTL
      000000E4H   SFRSYM    DATA     BYTE      IT01CF
      000000C8H.0 SFRSYM    DATA     BIT       TMR5CN0_T5XCLK
      000000C0H.6 SFRSYM    DATA     BIT       SMB0CN0_TXMODE
      000000C0H.6 SFRSYM    DATA     BIT       SMB1CN0_TXMODE
      000000BFH   SFRSYM    DATA     BYTE      SFRPAGE
      000000A4H   SFRSYM    DATA     BYTE      P0MDOUT
      000000A5H   SFRSYM    DATA     BYTE      P1MDOUT
      000000E8H.5 SFRSYM    DATA     BIT       ADC0CN0_ADINT
      000000CBH   SFRSYM    DATA     BYTE      TMR2RLH
      000000A6H   SFRSYM    DATA     BYTE      P2MDOUT
      000000A8H   SFRSYM    DATA     BYTE      IE
      00000093H   SFRSYM    DATA     BYTE      TMR3RLH
      000000A7H   SFRSYM    DATA     BYTE      P3MDOUT
      00000093H   SFRSYM    DATA     BYTE      TMR4RLH
      000000AEH   SFRSYM    DATA     BYTE      P4MDOUT
      000000F6H   SFRSYM    DATA     BYTE      EIP1
LX51 LINKER/LOCATER V4.66.97.0                                                        01/21/2021  22:11:49  PAGE 59


      000000CBH   SFRSYM    DATA     BYTE      TMR5RLH
      000000F7H   SFRSYM    DATA     BYTE      EIP2
      00000098H.2 SFRSYM    DATA     BIT       SCON0_RB8
      000000CAH   SFRSYM    DATA     BYTE      TMR2RLL
      000000FCH   SFRSYM    DATA     BYTE      PCA0CPH0
      00000092H   SFRSYM    DATA     BYTE      TMR3RLL
      000000EAH   SFRSYM    DATA     BYTE      PCA0CPH1
      00000098H.3 SFRSYM    DATA     BIT       SCON0_TB8
      000000F0H.0 SFRSYM    DATA     BIT       B_B0
      00000082H   SFRSYM    DATA     WORD      DP
      00000092H   SFRSYM    DATA     BYTE      TMR4RLL
      000000ECH   SFRSYM    DATA     BYTE      PCA0CPH2
      000000F0H.1 SFRSYM    DATA     BIT       B_B1
      000000C3H   SFRSYM    DATA     WORD      ADC0GT
      000000CAH   SFRSYM    DATA     BYTE      TMR5RLL
      000000EEH   SFRSYM    DATA     BYTE      PCA0CPH3
      000000F0H.2 SFRSYM    DATA     BIT       B_B2
      000000FBH   SFRSYM    DATA     BYTE      PCA0CPL0
      000000FEH   SFRSYM    DATA     BYTE      PCA0CPH4
      00000085H   SFRSYM    DATA     BYTE      EMI0CF
      000000F0H.3 SFRSYM    DATA     BIT       B_B3
      000000D9H   SFRSYM    DATA     BYTE      PCA0MD
      000000DAH   SFRSYM    DATA     BYTE      PCA0CPM0
      000000E9H   SFRSYM    DATA     BYTE      PCA0CPL1
      000000F0H.4 SFRSYM    DATA     BIT       B_B4
      000000DBH   SFRSYM    DATA     BYTE      PCA0CPM1
      000000EBH   SFRSYM    DATA     BYTE      PCA0CPL2
      000000F0H.5 SFRSYM    DATA     BIT       B_B5
      000000DCH   SFRSYM    DATA     BYTE      PCA0CPM2
      000000EDH   SFRSYM    DATA     BYTE      PCA0CPL3
      000000B8H   SFRSYM    DATA     BYTE      IP
      000000F0H.6 SFRSYM    DATA     BIT       B_B6
      000000C5H   SFRSYM    DATA     WORD      ADC0LT
      000000DDH   SFRSYM    DATA     BYTE      PCA0CPM3
      000000FDH   SFRSYM    DATA     BYTE      PCA0CPL4
      00000098H.5 SFRSYM    DATA     BIT       SCON0_MCE
      000000F0H.7 SFRSYM    DATA     BIT       B_B7
      000000DEH   SFRSYM    DATA     BYTE      PCA0CPM4
      000000E1H   SFRSYM    DATA     BYTE      XBR0
      000000C1H   SFRSYM    DATA     BYTE      SMB0CF
      000000E2H   SFRSYM    DATA     BYTE      XBR1
      000000C1H   SFRSYM    DATA     BYTE      SMB1CF
      000000AFH   SFRSYM    DATA     BYTE      PFE0CN
      000000AAH   SFRSYM    DATA     BYTE      EMI0CN
      000000C0H.5 SFRSYM    DATA     BIT       SMB0CN0_STA
      000000E3H   SFRSYM    DATA     BYTE      XBR2
      000000C0H.5 SFRSYM    DATA     BIT       SMB1CN0_STA
      000000E0H.0 SFRSYM    DATA     BIT       ACC_ACC0
      000000D1H   SFRSYM    DATA     BYTE      REF0CN
      000000B2H   SFRSYM    DATA     BYTE      HFO0CN
      0000008EH   SFRSYM    DATA     BYTE      CKCON0
      000000E0H.1 SFRSYM    DATA     BIT       ACC_ACC1
      000000E4H   SFRSYM    DATA     BYTE      CKCON1
      000000C8H.2 SFRSYM    DATA     BIT       TMR2CN0_TR2
      000000E0H.2 SFRSYM    DATA     BIT       ACC_ACC2
      000000E0H.3 SFRSYM    DATA     BIT       ACC_ACC3
      00000081H   SFRSYM    DATA     BYTE      SP
      0000009DH   SFRSYM    DATA     BYTE      CMP0MD
      000000E0H.4 SFRSYM    DATA     BIT       ACC_ACC4
      00000086H   SFRSYM    DATA     BYTE      LFO0CN
      00000084H   SFRSYM    DATA     BYTE      EMI0TC
      0000009CH   SFRSYM    DATA     BYTE      CMP1MD
LX51 LINKER/LOCATER V4.66.97.0                                                        01/21/2021  22:11:49  PAGE 60


      000000D8H.0 SFRSYM    DATA     BIT       PCA0CN0_CCF0
      000000E0H.5 SFRSYM    DATA     BIT       ACC_ACC5
      000000D8H.1 SFRSYM    DATA     BIT       PCA0CN0_CCF1
      000000E0H.6 SFRSYM    DATA     BIT       ACC_ACC6
      000000CCH   SFRSYM    DATA     WORD      TMR2
      000000D8H.2 SFRSYM    DATA     BIT       PCA0CN0_CCF2
      000000E0H.7 SFRSYM    DATA     BIT       ACC_ACC7
      00000094H   SFRSYM    DATA     WORD      TMR3
      000000C8H.2 SFRSYM    DATA     BIT       TMR5CN0_TR5
      000000D8H.3 SFRSYM    DATA     BIT       PCA0CN0_CCF3
      00000094H   SFRSYM    DATA     WORD      TMR4
      000000ACH   SFRSYM    DATA     BYTE      SBCON1
      000000D8H.4 SFRSYM    DATA     BIT       PCA0CN0_CCF4
      000000CCH   SFRSYM    DATA     WORD      TMR5
      000000C0H.3 SFRSYM    DATA     BIT       SMB0CN0_ACKRQ
      000000FFH   SFRSYM    DATA     BYTE      VDM0CN
      000000F1H   SFRSYM    DATA     BYTE      P0MDIN
      000000C0H.3 SFRSYM    DATA     BIT       SMB1CN0_ACKRQ
      00000098H.4 SFRSYM    DATA     BIT       SCON0_REN
      000000F2H   SFRSYM    DATA     BYTE      P1MDIN
      000000F3H   SFRSYM    DATA     BYTE      P2MDIN
      000000C0H.4 SFRSYM    DATA     BIT       SMB0CN0_STO
      000000F4H   SFRSYM    DATA     BYTE      P3MDIN
      000000C0H.4 SFRSYM    DATA     BIT       SMB1CN0_STO
      000000B5H   SFRSYM    DATA     BYTE      SBRLH1
      000000F5H   SFRSYM    DATA     BYTE      P4MDIN
      000000D0H.3 SFRSYM    DATA     BIT       PSW_RS0
      000000D8H.7 SFRSYM    DATA     BIT       PCA0CN0_CF
      000000F8H.4 SFRSYM    DATA     BIT       SPI0CN0_RXOVRN
      000000D0H.4 SFRSYM    DATA     BIT       PSW_RS1
      000000B4H   SFRSYM    DATA     BYTE      SBRLL1
      000000E8H.7 SFRSYM    DATA     BIT       ADC0CN0_ADEN
      00000089H   SFRSYM    DATA     BYTE      TMOD
      00000088H   SFRSYM    DATA     BYTE      TCON
      000000D0H.0 SFRSYM    DATA     BIT       PSW_PARITY
      000000A8H.4 SFRSYM    DATA     BIT       IE_ES0
      0000009FH   SFRSYM    DATA     BYTE      CMP0MX
      000000A8H.1 SFRSYM    DATA     BIT       IE_ET0
      0000009EH   SFRSYM    DATA     BYTE      CMP1MX
      000000A8H.3 SFRSYM    DATA     BIT       IE_ET1
      000000D4H   SFRSYM    DATA     BYTE      P0SKIP
      000000C8H.1 SFRSYM    DATA     BIT       TMR2CN0_T2CSS
      000000A8H.5 SFRSYM    DATA     BIT       IE_ET2
      000000D5H   SFRSYM    DATA     BYTE      P1SKIP
      000000D6H   SFRSYM    DATA     BYTE      P2SKIP
      000000E8H   SFRSYM    DATA     BYTE      ADC0CN0
      000000A8H.0 SFRSYM    DATA     BIT       IE_EX0
      000000DFH   SFRSYM    DATA     BYTE      P3SKIP
      000000D8H.6 SFRSYM    DATA     BIT       PCA0CN0_CR
      000000A8H.2 SFRSYM    DATA     BIT       IE_EX1
      00000098H.7 SFRSYM    DATA     BIT       SCON0_SMODE
      000000A9H   SFRSYM    DATA     BYTE      CLKSEL
      000000F8H.0 SFRSYM    DATA     BIT       SPI0CN0_SPIEN
      000000F0H   SFRSYM    DATA     BYTE      B
      000000BEH   SFRSYM    DATA     BYTE      ADC0H
      000000E8H.6 SFRSYM    DATA     BIT       ADC0CN0_ADTM
      000000CAH   SFRSYM    DATA     WORD      TMR2RL
      000000BDH   SFRSYM    DATA     BYTE      ADC0L
      00000092H   SFRSYM    DATA     WORD      TMR3RL
      00000092H   SFRSYM    DATA     WORD      TMR4RL
      000000D8H   SFRSYM    DATA     BYTE      PCA0CN0
      000000E0H   SFRSYM    DATA     BYTE      ACC
LX51 LINKER/LOCATER V4.66.97.0                                                        01/21/2021  22:11:49  PAGE 61


      000000CAH   SFRSYM    DATA     WORD      TMR5RL
      000000FBH   SFRSYM    DATA     WORD      PCA0CP0
      000000E9H   SFRSYM    DATA     WORD      PCA0CP1
      000000EBH   SFRSYM    DATA     WORD      PCA0CP2
      000000EDH   SFRSYM    DATA     WORD      PCA0CP3
      0000008CH   SFRSYM    DATA     BYTE      TH0
      000000B8H.4 SFRSYM    DATA     BIT       IP_PS0
      000000FDH   SFRSYM    DATA     WORD      PCA0CP4
      0000008DH   SFRSYM    DATA     BYTE      TH1
      000000FAH   SFRSYM    DATA     BYTE      PCA0H
      000000B8H.1 SFRSYM    DATA     BIT       IP_PT0
      000000B8H.3 SFRSYM    DATA     BIT       IP_PT1
      000000C0H.2 SFRSYM    DATA     BIT       SMB0CN0_ARBLOST
      000000B8H.5 SFRSYM    DATA     BIT       IP_PT2
      0000008AH   SFRSYM    DATA     BYTE      TL0
      000000F8H.1 SFRSYM    DATA     BIT       SPI0CN0_TXBMT
      000000C0H.2 SFRSYM    DATA     BIT       SMB1CN0_ARBLOST
      000000D0H.5 SFRSYM    DATA     BIT       PSW_F0
      000000A8H.6 SFRSYM    DATA     BIT       IE_ESPI0
      0000008BH   SFRSYM    DATA     BYTE      TL1
      000000F9H   SFRSYM    DATA     BYTE      PCA0L
      000000C0H.0 SFRSYM    DATA     BIT       SMB0CN0_SI
      000000D0H.1 SFRSYM    DATA     BIT       PSW_F1
      00000080H.0 SFRSYM    DATA     BIT       P0_B0
      000000B8H.0 SFRSYM    DATA     BIT       IP_PX0
      000000C9H   SFRSYM    DATA     BYTE      REG01CN
      000000C0H.0 SFRSYM    DATA     BIT       SMB1CN0_SI
      00000090H.0 SFRSYM    DATA     BIT       P1_B0
      00000080H.1 SFRSYM    DATA     BIT       P0_B1
      000000B8H.2 SFRSYM    DATA     BIT       IP_PX1
      0000009BH   SFRSYM    DATA     BYTE      CMP0CN0
      00000088H.1 SFRSYM    DATA     BIT       TCON_IE0
      000000A0H.0 SFRSYM    DATA     BIT       P2_B0
      00000090H.1 SFRSYM    DATA     BIT       P1_B1
      00000080H.2 SFRSYM    DATA     BIT       P0_B2
      0000009AH   SFRSYM    DATA     BYTE      CMP1CN0
      00000088H.3 SFRSYM    DATA     BIT       TCON_IE1
      000000B0H.0 SFRSYM    DATA     BIT       P3_B0
      000000A0H.1 SFRSYM    DATA     BIT       P2_B1
      00000090H.2 SFRSYM    DATA     BIT       P1_B2
      00000080H.3 SFRSYM    DATA     BIT       P0_B3
      000000C0H   SFRSYM    DATA     BYTE      SMB0CN0
      000000B0H.1 SFRSYM    DATA     BIT       P3_B1
      000000A0H.2 SFRSYM    DATA     BIT       P2_B2
      00000090H.3 SFRSYM    DATA     BIT       P1_B3
      00000080H.4 SFRSYM    DATA     BIT       P0_B4
      000000C0H   SFRSYM    DATA     BYTE      SMB1CN0
      000000B0H.2 SFRSYM    DATA     BIT       P3_B2
      000000A0H.3 SFRSYM    DATA     BIT       P2_B3
      00000090H.4 SFRSYM    DATA     BIT       P1_B4
      00000080H.5 SFRSYM    DATA     BIT       P0_B5
      000000B0H.3 SFRSYM    DATA     BIT       P3_B3
      000000A0H.4 SFRSYM    DATA     BIT       P2_B4
      00000090H.5 SFRSYM    DATA     BIT       P1_B5
      00000080H.6 SFRSYM    DATA     BIT       P0_B6
      000000B0H.4 SFRSYM    DATA     BIT       P3_B4
      000000A0H.5 SFRSYM    DATA     BIT       P2_B5
      00000090H.6 SFRSYM    DATA     BIT       P1_B6
      00000080H.7 SFRSYM    DATA     BIT       P0_B7
      000000B0H.5 SFRSYM    DATA     BIT       P3_B5
      000000A0H.6 SFRSYM    DATA     BIT       P2_B6
      00000090H.7 SFRSYM    DATA     BIT       P1_B7
LX51 LINKER/LOCATER V4.66.97.0                                                        01/21/2021  22:11:49  PAGE 62


      000000B0H.6 SFRSYM    DATA     BIT       P3_B6
      000000A0H.7 SFRSYM    DATA     BIT       P2_B7
      000000B0H.7 SFRSYM    DATA     BIT       P3_B7
      00000083H   SFRSYM    DATA     BYTE      DPH
      000000C4H   SFRSYM    DATA     BYTE      ADC0GTH
      000000C8H.7 SFRSYM    DATA     BIT       TMR2CN0_TF2H
      000000C8H.3 SFRSYM    DATA     BIT       TMR2CN0_T2SPLIT
      000000D0H.6 SFRSYM    DATA     BIT       PSW_AC
      000000F8H   SFRSYM    DATA     BYTE      SPI0CN0
      000000B3H   SFRSYM    DATA     BYTE      HFO0CAL
      00000088H.5 SFRSYM    DATA     BIT       TCON_TF0
      00000098H.0 SFRSYM    DATA     BIT       SCON0_RI
      00000082H   SFRSYM    DATA     BYTE      DPL
      00000088H.7 SFRSYM    DATA     BIT       TCON_TF1
      00000099H   SFRSYM    DATA     BYTE      SBUF0
      00000087H   SFRSYM    DATA     BYTE      PCON0
      000000C3H   SFRSYM    DATA     BYTE      ADC0GTL
      000000C8H.6 SFRSYM    DATA     BIT       TMR2CN0_TF2L
      00000098H.1 SFRSYM    DATA     BIT       SCON0_TI
      000000E8H.0 SFRSYM    DATA     BIT       ADC0CN0_ADCM0
      000000D3H   SFRSYM    DATA     BYTE      SBUF1
      000000C6H   SFRSYM    DATA     BYTE      ADC0LTH
      00000088H.0 SFRSYM    DATA     BIT       TCON_IT0
      000000E8H.1 SFRSYM    DATA     BIT       ADC0CN0_ADCM1
      000000EFH   SFRSYM    DATA     BYTE      RSTSRC
      000000C8H.7 SFRSYM    DATA     BIT       TMR5CN0_TF5H
      000000C8H.3 SFRSYM    DATA     BIT       TMR5CN0_T5SPLIT
      00000088H.2 SFRSYM    DATA     BIT       TCON_IT1
      000000E8H.2 SFRSYM    DATA     BIT       ADC0CN0_ADCM2
      00000098H   SFRSYM    DATA     BYTE      SCON0
      000000E8H.3 SFRSYM    DATA     BIT       ADC0CN0_ADWINT
      000000B4H   SFRSYM    DATA     WORD      SBRL1
      000000E5H   SFRSYM    DATA     BYTE      SMOD1
      000000D2H   SFRSYM    DATA     BYTE      SCON1
      000000BAH   SFRSYM    DATA     BYTE      AMX0N
      000000E8H.4 SFRSYM    DATA     BIT       ADC0CN0_ADBUSY
      000000CEH   SFRSYM    DATA     BYTE      SMB0ADM
      000000C5H   SFRSYM    DATA     BYTE      ADC0LTL
      000000F8H.5 SFRSYM    DATA     BIT       SPI0CN0_MODF
      000000B8H.6 SFRSYM    DATA     BIT       IP_PSPI0
      000000CEH   SFRSYM    DATA     BYTE      SMB1ADM
      000000BBH   SFRSYM    DATA     BYTE      AMX0P
      000000C8H.6 SFRSYM    DATA     BIT       TMR5CN0_TF5L
      000000C8H   SFRSYM    DATA     BYTE      TMR2CN0
      00000091H   SFRSYM    DATA     BYTE      TMR3CN0
      00000091H   SFRSYM    DATA     BYTE      TMR4CN0
      000000C8H   SFRSYM    DATA     BYTE      TMR5CN0
      000000CFH   SFRSYM    DATA     BYTE      SMB0ADR
      00000088H.4 SFRSYM    DATA     BIT       TCON_TR0
      000000CFH   SFRSYM    DATA     BYTE      SMB1ADR
      000000C8H.4 SFRSYM    DATA     BIT       TMR2CN0_TF2CEN
      00000088H.6 SFRSYM    DATA     BIT       TCON_TR1
      000000C2H   SFRSYM    DATA     BYTE      SMB0DAT
      000000CDH   SFRSYM    DATA     BYTE      TMR2H
      000000A1H   SFRSYM    DATA     BYTE      SPI0CFG
      000000C2H   SFRSYM    DATA     BYTE      SMB1DAT
      00000095H   SFRSYM    DATA     BYTE      TMR3H
      00000095H   SFRSYM    DATA     BYTE      TMR4H
      000000CDH   SFRSYM    DATA     BYTE      TMR5H
      000000CCH   SFRSYM    DATA     BYTE      TMR2L
      000000F8H.7 SFRSYM    DATA     BIT       SPI0CN0_SPIF
      00000096H   SFRSYM    DATA     BYTE      USB0ADR
LX51 LINKER/LOCATER V4.66.97.0                                                        01/21/2021  22:11:49  PAGE 63


      00000094H   SFRSYM    DATA     BYTE      TMR3L
      000000A8H.7 SFRSYM    DATA     BIT       IE_EA
      00000094H   SFRSYM    DATA     BYTE      TMR4L
      00000097H   SFRSYM    DATA     BYTE      USB0DAT
      000000CCH   SFRSYM    DATA     BYTE      TMR5L
      000000B6H   SFRSYM    DATA     BYTE      FLSCL
      000000C8H.5 SFRSYM    DATA     BIT       TMR2CN0_TF2LEN
      000000F8H.6 SFRSYM    DATA     BIT       SPI0CN0_WCOL
      000000F8H.2 SFRSYM    DATA     BIT       SPI0CN0_NSSMD0
      000000D0H.7 SFRSYM    DATA     BIT       PSW_CY
      000000A3H   SFRSYM    DATA     BYTE      SPI0DAT
      000000F8H.3 SFRSYM    DATA     BIT       SPI0CN0_NSSMD1
      000000BDH   SFRSYM    DATA     WORD      ADC0
      000000B9H   SFRSYM    DATA     BYTE      SMBTC
      000000D0H   SFRSYM    DATA     BYTE      PSW
      000000C8H.5 SFRSYM    DATA     BIT       TMR5CN0_TF5LEN
      000000B7H   SFRSYM    DATA     BYTE      FLKEY
      01001B86H   SYMBOL    CODE     ---       _USB_GetShortRegister

      01001B86H   BLOCK     CODE     ---       LVL=0
      00000005H   SYMBOL    DATA     BYTE      regAddr
      01001B88H   BLOCK     CODE     NEAR LAB  LVL=1
      00000006H   SYMBOL    DATA     WORD      retVal
      ---         BLOCKEND  ---      ---       LVL=1
      01001B86H   LINE      CODE     ---       #25
      01001B88H   LINE      CODE     ---       #26
      01001B88H   LINE      CODE     ---       #29
      01001B92H   LINE      CODE     ---       #30
      01001B98H   LINE      CODE     ---       #31
      01001BA3H   LINE      CODE     ---       #32
      01001BA8H   LINE      CODE     ---       #34
      01001BA8H   LINE      CODE     ---       #35
      ---         BLOCKEND  ---      ---       LVL=0

      01001DDEH   BLOCK     CODE     ---       LVL=0
      00000007H   SYMBOL    DATA     BYTE      epsel
      01001DDEH   LINE      CODE     ---       #40
      01001DDEH   LINE      CODE     ---       #41
      01001DDEH   LINE      CODE     ---       #42
      01001DE8H   LINE      CODE     ---       #43
      ---         BLOCKEND  ---      ---       LVL=0

      01001DE9H   BLOCK     CODE     ---       LVL=0
      01001DE9H   LINE      CODE     ---       #45
      01001DE9H   LINE      CODE     ---       #46
      01001DE9H   LINE      CODE     ---       #47
      01001DF1H   LINE      CODE     ---       #48
      01001DF3H   LINE      CODE     ---       #49
      ---         BLOCKEND  ---      ---       LVL=0

      01001DF4H   BLOCK     CODE     ---       LVL=0
      01001DF4H   LINE      CODE     ---       #51
      01001DF4H   LINE      CODE     ---       #52
      01001DF4H   LINE      CODE     ---       #53
      01001DFCH   LINE      CODE     ---       #54
      01001DFEH   LINE      CODE     ---       #55
      ---         BLOCKEND  ---      ---       LVL=0

      01001DFFH   BLOCK     CODE     ---       LVL=0
      01001DFFH   LINE      CODE     ---       #57
      01001DFFH   LINE      CODE     ---       #58
      01001DFFH   LINE      CODE     ---       #59
LX51 LINKER/LOCATER V4.66.97.0                                                        01/21/2021  22:11:49  PAGE 64


      01001E07H   LINE      CODE     ---       #60
      01001E09H   LINE      CODE     ---       #61
      ---         BLOCKEND  ---      ---       LVL=0

      01001E0AH   BLOCK     CODE     ---       LVL=0
      01001E0AH   LINE      CODE     ---       #63
      01001E0AH   LINE      CODE     ---       #64
      01001E0AH   LINE      CODE     ---       #65
      01001E12H   LINE      CODE     ---       #66
      01001E14H   LINE      CODE     ---       #67
      ---         BLOCKEND  ---      ---       LVL=0

      01001D39H   BLOCK     CODE     ---       LVL=0
      01001D39H   LINE      CODE     ---       #75
      01001D39H   LINE      CODE     ---       #76
      01001D39H   LINE      CODE     ---       #77
      01001D41H   LINE      CODE     ---       #78
      01001D45H   LINE      CODE     ---       #79
      ---         BLOCKEND  ---      ---       LVL=0

      01001D46H   BLOCK     CODE     ---       LVL=0
      01001D46H   LINE      CODE     ---       #81
      01001D46H   LINE      CODE     ---       #82
      01001D46H   LINE      CODE     ---       #83
      01001D4EH   LINE      CODE     ---       #84
      01001D52H   LINE      CODE     ---       #85
      ---         BLOCKEND  ---      ---       LVL=0

      01001DBBH   BLOCK     CODE     ---       LVL=0
      01001DBBH   LINE      CODE     ---       #87
      01001DBBH   LINE      CODE     ---       #88
      01001DBBH   LINE      CODE     ---       #89
      01001DC3H   LINE      CODE     ---       #90
      01001DC6H   LINE      CODE     ---       #91
      ---         BLOCKEND  ---      ---       LVL=0

      01001D53H   BLOCK     CODE     ---       LVL=0
      01001D53H   LINE      CODE     ---       #93
      01001D53H   LINE      CODE     ---       #94
      01001D53H   LINE      CODE     ---       #95
      01001D5BH   LINE      CODE     ---       #96
      01001D5FH   LINE      CODE     ---       #97
      ---         BLOCKEND  ---      ---       LVL=0

      01001E15H   BLOCK     CODE     ---       LVL=0
      01001E15H   LINE      CODE     ---       #99
      01001E15H   LINE      CODE     ---       #100
      01001E15H   LINE      CODE     ---       #101
      01001E1DH   LINE      CODE     ---       #102
      01001E1FH   LINE      CODE     ---       #103
      ---         BLOCKEND  ---      ---       LVL=0

      01001D60H   BLOCK     CODE     ---       LVL=0
      01001D60H   LINE      CODE     ---       #105
      01001D60H   LINE      CODE     ---       #106
      01001D60H   LINE      CODE     ---       #107
      01001D68H   LINE      CODE     ---       #108
      01001D6CH   LINE      CODE     ---       #109
      ---         BLOCKEND  ---      ---       LVL=0

      01001A37H   BLOCK     CODE     ---       LVL=0
      00000007H   SYMBOL    DATA     BYTE      fifoNum
LX51 LINKER/LOCATER V4.66.97.0                                                        01/21/2021  22:11:49  PAGE 65


      01001A37H   LINE      CODE     ---       #111
      01001A37H   LINE      CODE     ---       #112
      01001A37H   LINE      CODE     ---       #113
      01001A3AH   LINE      CODE     ---       #114
      01001A52H   LINE      CODE     ---       #115
      01001A6AH   LINE      CODE     ---       #116
      ---         BLOCKEND  ---      ---       LVL=0

      01001D6DH   BLOCK     CODE     ---       LVL=0
      01001D6DH   LINE      CODE     ---       #118
      01001D6DH   LINE      CODE     ---       #119
      01001D6DH   LINE      CODE     ---       #120
      01001D75H   LINE      CODE     ---       #121
      01001D79H   LINE      CODE     ---       #122
      ---         BLOCKEND  ---      ---       LVL=0

      01001DC7H   BLOCK     CODE     ---       LVL=0
      01001DC7H   LINE      CODE     ---       #124
      01001DC7H   LINE      CODE     ---       #125
      01001DC7H   LINE      CODE     ---       #126
      01001DCFH   LINE      CODE     ---       #127
      01001DD2H   LINE      CODE     ---       #128
      ---         BLOCKEND  ---      ---       LVL=0

      01001E73H   BLOCK     CODE     ---       LVL=0
      01001E73H   LINE      CODE     ---       #136
      01001E73H   LINE      CODE     ---       #137
      01001E73H   LINE      CODE     ---       #138
      ---         BLOCKEND  ---      ---       LVL=0

      01001A6BH   BLOCK     CODE     ---       LVL=0
      00000007H   SYMBOL    DATA     BYTE      fifoNum
      01001A6BH   LINE      CODE     ---       #141
      01001A6BH   LINE      CODE     ---       #142
      01001A6BH   LINE      CODE     ---       #143
      01001A6EH   LINE      CODE     ---       #144
      01001A86H   LINE      CODE     ---       #145
      01001A9EH   LINE      CODE     ---       #146
      ---         BLOCKEND  ---      ---       LVL=0

      010014E6H   BLOCK     CODE     ---       LVL=0
      00000006H   SYMBOL    DATA     BYTE      ep
      00000004H   SYMBOL    DATA     WORD      packetSize
      00000020H.1 SYMBOL    BIT      BIT       inDir
      00000020H.2 SYMBOL    BIT      BIT       splitMode
      00000020H.3 SYMBOL    BIT      BIT       isoMode
      010014E8H   BLOCK     CODE     NEAR LAB  LVL=1
      00000003H   SYMBOL    DATA     BYTE      CSRH_mask
      00000006H   SYMBOL    DATA     WORD      fifoSize
      ---         BLOCKEND  ---      ---       LVL=1
      010014E6H   LINE      CODE     ---       #148
      010014E8H   LINE      CODE     ---       #153
      010014E8H   LINE      CODE     ---       #154
      010014EAH   LINE      CODE     ---       #157
      010014EDH   LINE      CODE     ---       #161
      01001516H   LINE      CODE     ---       #163
      0100151DH   LINE      CODE     ---       #164
      0100151DH   LINE      CODE     ---       #165
      01001520H   LINE      CODE     ---       #166
      01001520H   LINE      CODE     ---       #168
      01001523H   LINE      CODE     ---       #169
      01001523H   LINE      CODE     ---       #170
LX51 LINKER/LOCATER V4.66.97.0                                                        01/21/2021  22:11:49  PAGE 66


      01001526H   LINE      CODE     ---       #171
      01001526H   LINE      CODE     ---       #173
      01001529H   LINE      CODE     ---       #174
      01001529H   LINE      CODE     ---       #175
      0100152CH   LINE      CODE     ---       #177
      0100152FH   LINE      CODE     ---       #178
      0100152FH   LINE      CODE     ---       #179
      01001532H   LINE      CODE     ---       #180
      01001532H   LINE      CODE     ---       #181
      0100153DH   LINE      CODE     ---       #182
      01001549H   LINE      CODE     ---       #183
      01001549H   LINE      CODE     ---       #185
      01001549H   LINE      CODE     ---       #186
      01001554H   LINE      CODE     ---       #187
      0100155EH   LINE      CODE     ---       #189
      01001561H   LINE      CODE     ---       #190
      01001561H   LINE      CODE     ---       #191
      0100156CH   LINE      CODE     ---       #192
      0100156CH   LINE      CODE     ---       #193
      0100156CH   LINE      CODE     ---       #194
      ---         BLOCKEND  ---      ---       LVL=0

      01001E78H   BLOCK     CODE     ---       LVL=0
      01001E78H   LINE      CODE     ---       #196
      01001E78H   LINE      CODE     ---       #197
      01001E78H   LINE      CODE     ---       #198
      ---         BLOCKEND  ---      ---       LVL=0

      ---         MODULE    ---      ---       INITDEVICE
      01001E85H   PUBLIC    CODE     ---       VREF_0_enter_DefaultMode_from_RESET
      01001D29H   PUBLIC    CODE     ---       ADC_0_enter_DefaultMode_from_RESET
      01001E3EH   PUBLIC    CODE     ---       PCACH_4_enter_DefaultMode_from_RESET
      01001E51H   PUBLIC    CODE     ---       USBLIB_0_enter_DefaultMode_from_RESET
      01001E61H   PUBLIC    CODE     ---       INTERRUPT_0_enter_DefaultMode_from_RESET
      01001E81H   PUBLIC    CODE     ---       CLOCK_0_enter_DefaultMode_from_RESET
      01001E7DH   PUBLIC    CODE     ---       PBCFG_0_enter_DefaultMode_from_RESET
      01001E34H   PUBLIC    CODE     ---       PORTS_4_enter_DefaultMode_from_RESET
      01001DA1H   PUBLIC    CODE     ---       PORTS_3_enter_DefaultMode_from_RESET
      01001D94H   PUBLIC    CODE     ---       PORTS_2_enter_DefaultMode_from_RESET
      01001D87H   PUBLIC    CODE     ---       PORTS_1_enter_DefaultMode_from_RESET
      01001D7AH   PUBLIC    CODE     ---       PORTS_0_enter_DefaultMode_from_RESET
      01001E2AH   PUBLIC    CODE     ---       PCACH_1_enter_DefaultMode_from_RESET
      01001E20H   PUBLIC    CODE     ---       PCACH_0_enter_DefaultMode_from_RESET
      01001E48H   PUBLIC    CODE     ---       PCA_0_enter_DefaultMode_from_RESET
      01001A9FH   PUBLIC    CODE     ---       enter_DefaultMode_from_RESET
      000000A2H   SFRSYM    DATA     BYTE      SPI0CKR
      00000080H   SFRSYM    DATA     BYTE      P0
      000000D0H.2 SFRSYM    DATA     BIT       PSW_OV
      000000B1H   SFRSYM    DATA     BYTE      XOSC0CN
      00000090H   SFRSYM    DATA     BYTE      P1
      000000A0H   SFRSYM    DATA     BYTE      P2
      000000B0H   SFRSYM    DATA     BYTE      P3
      000000BCH   SFRSYM    DATA     BYTE      ADC0CF
      000000C8H.0 SFRSYM    DATA     BIT       TMR2CN0_T2XCLK
      000000C7H   SFRSYM    DATA     BYTE      P4
      000000C0H.7 SFRSYM    DATA     BIT       SMB0CN0_MASTER
      000000F9H   SFRSYM    DATA     WORD      PCA0
      000000E6H   SFRSYM    DATA     BYTE      EIE1
      000000C0H.7 SFRSYM    DATA     BIT       SMB1CN0_MASTER
      000000C0H.1 SFRSYM    DATA     BIT       SMB0CN0_ACK
      000000D7H   SFRSYM    DATA     BYTE      USB0XCN
      000000E7H   SFRSYM    DATA     BYTE      EIE2
LX51 LINKER/LOCATER V4.66.97.0                                                        01/21/2021  22:11:49  PAGE 67


      000000C0H.1 SFRSYM    DATA     BIT       SMB1CN0_ACK
      0000008FH   SFRSYM    DATA     BYTE      PSCTL
      000000E4H   SFRSYM    DATA     BYTE      IT01CF
      000000C8H.0 SFRSYM    DATA     BIT       TMR5CN0_T5XCLK
      000000C0H.6 SFRSYM    DATA     BIT       SMB0CN0_TXMODE
      000000C0H.6 SFRSYM    DATA     BIT       SMB1CN0_TXMODE
      000000BFH   SFRSYM    DATA     BYTE      SFRPAGE
      000000A4H   SFRSYM    DATA     BYTE      P0MDOUT
      000000A5H   SFRSYM    DATA     BYTE      P1MDOUT
      000000E8H.5 SFRSYM    DATA     BIT       ADC0CN0_ADINT
      000000CBH   SFRSYM    DATA     BYTE      TMR2RLH
      000000A6H   SFRSYM    DATA     BYTE      P2MDOUT
      000000A8H   SFRSYM    DATA     BYTE      IE
      00000093H   SFRSYM    DATA     BYTE      TMR3RLH
      000000A7H   SFRSYM    DATA     BYTE      P3MDOUT
      00000093H   SFRSYM    DATA     BYTE      TMR4RLH
      000000AEH   SFRSYM    DATA     BYTE      P4MDOUT
      000000F6H   SFRSYM    DATA     BYTE      EIP1
      000000CBH   SFRSYM    DATA     BYTE      TMR5RLH
      000000F7H   SFRSYM    DATA     BYTE      EIP2
      00000098H.2 SFRSYM    DATA     BIT       SCON0_RB8
      000000CAH   SFRSYM    DATA     BYTE      TMR2RLL
      000000FCH   SFRSYM    DATA     BYTE      PCA0CPH0
      00000092H   SFRSYM    DATA     BYTE      TMR3RLL
      000000EAH   SFRSYM    DATA     BYTE      PCA0CPH1
      00000098H.3 SFRSYM    DATA     BIT       SCON0_TB8
      000000F0H.0 SFRSYM    DATA     BIT       B_B0
      00000082H   SFRSYM    DATA     WORD      DP
      00000092H   SFRSYM    DATA     BYTE      TMR4RLL
      000000ECH   SFRSYM    DATA     BYTE      PCA0CPH2
      000000F0H.1 SFRSYM    DATA     BIT       B_B1
      000000C3H   SFRSYM    DATA     WORD      ADC0GT
      000000CAH   SFRSYM    DATA     BYTE      TMR5RLL
      000000EEH   SFRSYM    DATA     BYTE      PCA0CPH3
      000000F0H.2 SFRSYM    DATA     BIT       B_B2
      000000FBH   SFRSYM    DATA     BYTE      PCA0CPL0
      000000FEH   SFRSYM    DATA     BYTE      PCA0CPH4
      00000085H   SFRSYM    DATA     BYTE      EMI0CF
      000000F0H.3 SFRSYM    DATA     BIT       B_B3
      000000D9H   SFRSYM    DATA     BYTE      PCA0MD
      000000DAH   SFRSYM    DATA     BYTE      PCA0CPM0
      000000E9H   SFRSYM    DATA     BYTE      PCA0CPL1
      000000F0H.4 SFRSYM    DATA     BIT       B_B4
      000000DBH   SFRSYM    DATA     BYTE      PCA0CPM1
      000000EBH   SFRSYM    DATA     BYTE      PCA0CPL2
      000000F0H.5 SFRSYM    DATA     BIT       B_B5
      000000DCH   SFRSYM    DATA     BYTE      PCA0CPM2
      000000EDH   SFRSYM    DATA     BYTE      PCA0CPL3
      000000B8H   SFRSYM    DATA     BYTE      IP
      000000F0H.6 SFRSYM    DATA     BIT       B_B6
      000000C5H   SFRSYM    DATA     WORD      ADC0LT
      000000DDH   SFRSYM    DATA     BYTE      PCA0CPM3
      000000FDH   SFRSYM    DATA     BYTE      PCA0CPL4
      00000098H.5 SFRSYM    DATA     BIT       SCON0_MCE
      000000F0H.7 SFRSYM    DATA     BIT       B_B7
      000000DEH   SFRSYM    DATA     BYTE      PCA0CPM4
      000000E1H   SFRSYM    DATA     BYTE      XBR0
      000000C1H   SFRSYM    DATA     BYTE      SMB0CF
      000000E2H   SFRSYM    DATA     BYTE      XBR1
      000000C1H   SFRSYM    DATA     BYTE      SMB1CF
      000000AFH   SFRSYM    DATA     BYTE      PFE0CN
      000000AAH   SFRSYM    DATA     BYTE      EMI0CN
LX51 LINKER/LOCATER V4.66.97.0                                                        01/21/2021  22:11:49  PAGE 68


      000000C0H.5 SFRSYM    DATA     BIT       SMB0CN0_STA
      000000E3H   SFRSYM    DATA     BYTE      XBR2
      000000C0H.5 SFRSYM    DATA     BIT       SMB1CN0_STA
      000000E0H.0 SFRSYM    DATA     BIT       ACC_ACC0
      000000D1H   SFRSYM    DATA     BYTE      REF0CN
      000000B2H   SFRSYM    DATA     BYTE      HFO0CN
      0000008EH   SFRSYM    DATA     BYTE      CKCON0
      000000E0H.1 SFRSYM    DATA     BIT       ACC_ACC1
      000000E4H   SFRSYM    DATA     BYTE      CKCON1
      000000C8H.2 SFRSYM    DATA     BIT       TMR2CN0_TR2
      000000E0H.2 SFRSYM    DATA     BIT       ACC_ACC2
      000000E0H.3 SFRSYM    DATA     BIT       ACC_ACC3
      00000081H   SFRSYM    DATA     BYTE      SP
      0000009DH   SFRSYM    DATA     BYTE      CMP0MD
      000000E0H.4 SFRSYM    DATA     BIT       ACC_ACC4
      00000086H   SFRSYM    DATA     BYTE      LFO0CN
      00000084H   SFRSYM    DATA     BYTE      EMI0TC
      0000009CH   SFRSYM    DATA     BYTE      CMP1MD
      000000D8H.0 SFRSYM    DATA     BIT       PCA0CN0_CCF0
      000000E0H.5 SFRSYM    DATA     BIT       ACC_ACC5
      000000D8H.1 SFRSYM    DATA     BIT       PCA0CN0_CCF1
      000000E0H.6 SFRSYM    DATA     BIT       ACC_ACC6
      000000CCH   SFRSYM    DATA     WORD      TMR2
      000000D8H.2 SFRSYM    DATA     BIT       PCA0CN0_CCF2
      000000E0H.7 SFRSYM    DATA     BIT       ACC_ACC7
      00000094H   SFRSYM    DATA     WORD      TMR3
      000000C8H.2 SFRSYM    DATA     BIT       TMR5CN0_TR5
      000000D8H.3 SFRSYM    DATA     BIT       PCA0CN0_CCF3
      00000094H   SFRSYM    DATA     WORD      TMR4
      000000ACH   SFRSYM    DATA     BYTE      SBCON1
      000000D8H.4 SFRSYM    DATA     BIT       PCA0CN0_CCF4
      000000CCH   SFRSYM    DATA     WORD      TMR5
      000000C0H.3 SFRSYM    DATA     BIT       SMB0CN0_ACKRQ
      000000FFH   SFRSYM    DATA     BYTE      VDM0CN
      000000F1H   SFRSYM    DATA     BYTE      P0MDIN
      000000C0H.3 SFRSYM    DATA     BIT       SMB1CN0_ACKRQ
      00000098H.4 SFRSYM    DATA     BIT       SCON0_REN
      000000F2H   SFRSYM    DATA     BYTE      P1MDIN
      000000F3H   SFRSYM    DATA     BYTE      P2MDIN
      000000C0H.4 SFRSYM    DATA     BIT       SMB0CN0_STO
      000000F4H   SFRSYM    DATA     BYTE      P3MDIN
      000000C0H.4 SFRSYM    DATA     BIT       SMB1CN0_STO
      000000B5H   SFRSYM    DATA     BYTE      SBRLH1
      000000F5H   SFRSYM    DATA     BYTE      P4MDIN
      000000D0H.3 SFRSYM    DATA     BIT       PSW_RS0
      000000D8H.7 SFRSYM    DATA     BIT       PCA0CN0_CF
      000000F8H.4 SFRSYM    DATA     BIT       SPI0CN0_RXOVRN
      000000D0H.4 SFRSYM    DATA     BIT       PSW_RS1
      000000B4H   SFRSYM    DATA     BYTE      SBRLL1
      000000E8H.7 SFRSYM    DATA     BIT       ADC0CN0_ADEN
      00000089H   SFRSYM    DATA     BYTE      TMOD
      00000088H   SFRSYM    DATA     BYTE      TCON
      000000D0H.0 SFRSYM    DATA     BIT       PSW_PARITY
      000000A8H.4 SFRSYM    DATA     BIT       IE_ES0
      0000009FH   SFRSYM    DATA     BYTE      CMP0MX
      000000A8H.1 SFRSYM    DATA     BIT       IE_ET0
      0000009EH   SFRSYM    DATA     BYTE      CMP1MX
      000000A8H.3 SFRSYM    DATA     BIT       IE_ET1
      000000D4H   SFRSYM    DATA     BYTE      P0SKIP
      000000C8H.1 SFRSYM    DATA     BIT       TMR2CN0_T2CSS
      000000A8H.5 SFRSYM    DATA     BIT       IE_ET2
      000000D5H   SFRSYM    DATA     BYTE      P1SKIP
LX51 LINKER/LOCATER V4.66.97.0                                                        01/21/2021  22:11:49  PAGE 69


      000000D6H   SFRSYM    DATA     BYTE      P2SKIP
      000000E8H   SFRSYM    DATA     BYTE      ADC0CN0
      000000A8H.0 SFRSYM    DATA     BIT       IE_EX0
      000000DFH   SFRSYM    DATA     BYTE      P3SKIP
      000000D8H.6 SFRSYM    DATA     BIT       PCA0CN0_CR
      000000A8H.2 SFRSYM    DATA     BIT       IE_EX1
      00000098H.7 SFRSYM    DATA     BIT       SCON0_SMODE
      000000A9H   SFRSYM    DATA     BYTE      CLKSEL
      000000F8H.0 SFRSYM    DATA     BIT       SPI0CN0_SPIEN
      000000F0H   SFRSYM    DATA     BYTE      B
      000000BEH   SFRSYM    DATA     BYTE      ADC0H
      000000E8H.6 SFRSYM    DATA     BIT       ADC0CN0_ADTM
      000000CAH   SFRSYM    DATA     WORD      TMR2RL
      000000BDH   SFRSYM    DATA     BYTE      ADC0L
      00000092H   SFRSYM    DATA     WORD      TMR3RL
      00000092H   SFRSYM    DATA     WORD      TMR4RL
      000000D8H   SFRSYM    DATA     BYTE      PCA0CN0
      000000E0H   SFRSYM    DATA     BYTE      ACC
      000000CAH   SFRSYM    DATA     WORD      TMR5RL
      000000FBH   SFRSYM    DATA     WORD      PCA0CP0
      000000E9H   SFRSYM    DATA     WORD      PCA0CP1
      000000EBH   SFRSYM    DATA     WORD      PCA0CP2
      000000EDH   SFRSYM    DATA     WORD      PCA0CP3
      0000008CH   SFRSYM    DATA     BYTE      TH0
      000000B8H.4 SFRSYM    DATA     BIT       IP_PS0
      000000FDH   SFRSYM    DATA     WORD      PCA0CP4
      0000008DH   SFRSYM    DATA     BYTE      TH1
      000000FAH   SFRSYM    DATA     BYTE      PCA0H
      000000B8H.1 SFRSYM    DATA     BIT       IP_PT0
      000000B8H.3 SFRSYM    DATA     BIT       IP_PT1
      000000C0H.2 SFRSYM    DATA     BIT       SMB0CN0_ARBLOST
      000000B8H.5 SFRSYM    DATA     BIT       IP_PT2
      0000008AH   SFRSYM    DATA     BYTE      TL0
      000000F8H.1 SFRSYM    DATA     BIT       SPI0CN0_TXBMT
      000000C0H.2 SFRSYM    DATA     BIT       SMB1CN0_ARBLOST
      000000D0H.5 SFRSYM    DATA     BIT       PSW_F0
      000000A8H.6 SFRSYM    DATA     BIT       IE_ESPI0
      0000008BH   SFRSYM    DATA     BYTE      TL1
      000000F9H   SFRSYM    DATA     BYTE      PCA0L
      000000C0H.0 SFRSYM    DATA     BIT       SMB0CN0_SI
      000000D0H.1 SFRSYM    DATA     BIT       PSW_F1
      00000080H.0 SFRSYM    DATA     BIT       P0_B0
      000000B8H.0 SFRSYM    DATA     BIT       IP_PX0
      000000C9H   SFRSYM    DATA     BYTE      REG01CN
      000000C0H.0 SFRSYM    DATA     BIT       SMB1CN0_SI
      00000090H.0 SFRSYM    DATA     BIT       P1_B0
      00000080H.1 SFRSYM    DATA     BIT       P0_B1
      000000B8H.2 SFRSYM    DATA     BIT       IP_PX1
      0000009BH   SFRSYM    DATA     BYTE      CMP0CN0
      00000088H.1 SFRSYM    DATA     BIT       TCON_IE0
      000000A0H.0 SFRSYM    DATA     BIT       P2_B0
      00000090H.1 SFRSYM    DATA     BIT       P1_B1
      00000080H.2 SFRSYM    DATA     BIT       P0_B2
      0000009AH   SFRSYM    DATA     BYTE      CMP1CN0
      00000088H.3 SFRSYM    DATA     BIT       TCON_IE1
      000000B0H.0 SFRSYM    DATA     BIT       P3_B0
      000000A0H.1 SFRSYM    DATA     BIT       P2_B1
      00000090H.2 SFRSYM    DATA     BIT       P1_B2
      00000080H.3 SFRSYM    DATA     BIT       P0_B3
      000000C0H   SFRSYM    DATA     BYTE      SMB0CN0
      000000B0H.1 SFRSYM    DATA     BIT       P3_B1
      000000A0H.2 SFRSYM    DATA     BIT       P2_B2
LX51 LINKER/LOCATER V4.66.97.0                                                        01/21/2021  22:11:49  PAGE 70


      00000090H.3 SFRSYM    DATA     BIT       P1_B3
      00000080H.4 SFRSYM    DATA     BIT       P0_B4
      000000C0H   SFRSYM    DATA     BYTE      SMB1CN0
      000000B0H.2 SFRSYM    DATA     BIT       P3_B2
      000000A0H.3 SFRSYM    DATA     BIT       P2_B3
      00000090H.4 SFRSYM    DATA     BIT       P1_B4
      00000080H.5 SFRSYM    DATA     BIT       P0_B5
      000000B0H.3 SFRSYM    DATA     BIT       P3_B3
      000000A0H.4 SFRSYM    DATA     BIT       P2_B4
      00000090H.5 SFRSYM    DATA     BIT       P1_B5
      00000080H.6 SFRSYM    DATA     BIT       P0_B6
      000000B0H.4 SFRSYM    DATA     BIT       P3_B4
      000000A0H.5 SFRSYM    DATA     BIT       P2_B5
      00000090H.6 SFRSYM    DATA     BIT       P1_B6
      00000080H.7 SFRSYM    DATA     BIT       P0_B7
      000000B0H.5 SFRSYM    DATA     BIT       P3_B5
      000000A0H.6 SFRSYM    DATA     BIT       P2_B6
      00000090H.7 SFRSYM    DATA     BIT       P1_B7
      000000B0H.6 SFRSYM    DATA     BIT       P3_B6
      000000A0H.7 SFRSYM    DATA     BIT       P2_B7
      000000B0H.7 SFRSYM    DATA     BIT       P3_B7
      00000083H   SFRSYM    DATA     BYTE      DPH
      000000C4H   SFRSYM    DATA     BYTE      ADC0GTH
      000000C8H.7 SFRSYM    DATA     BIT       TMR2CN0_TF2H
      000000C8H.3 SFRSYM    DATA     BIT       TMR2CN0_T2SPLIT
      000000D0H.6 SFRSYM    DATA     BIT       PSW_AC
      000000F8H   SFRSYM    DATA     BYTE      SPI0CN0
      000000B3H   SFRSYM    DATA     BYTE      HFO0CAL
      00000088H.5 SFRSYM    DATA     BIT       TCON_TF0
      00000098H.0 SFRSYM    DATA     BIT       SCON0_RI
      00000082H   SFRSYM    DATA     BYTE      DPL
      00000088H.7 SFRSYM    DATA     BIT       TCON_TF1
      00000099H   SFRSYM    DATA     BYTE      SBUF0
      00000087H   SFRSYM    DATA     BYTE      PCON0
      000000C3H   SFRSYM    DATA     BYTE      ADC0GTL
      000000C8H.6 SFRSYM    DATA     BIT       TMR2CN0_TF2L
      00000098H.1 SFRSYM    DATA     BIT       SCON0_TI
      000000E8H.0 SFRSYM    DATA     BIT       ADC0CN0_ADCM0
      000000D3H   SFRSYM    DATA     BYTE      SBUF1
      000000C6H   SFRSYM    DATA     BYTE      ADC0LTH
      00000088H.0 SFRSYM    DATA     BIT       TCON_IT0
      000000E8H.1 SFRSYM    DATA     BIT       ADC0CN0_ADCM1
      000000EFH   SFRSYM    DATA     BYTE      RSTSRC
      000000C8H.7 SFRSYM    DATA     BIT       TMR5CN0_TF5H
      000000C8H.3 SFRSYM    DATA     BIT       TMR5CN0_T5SPLIT
      00000088H.2 SFRSYM    DATA     BIT       TCON_IT1
      000000E8H.2 SFRSYM    DATA     BIT       ADC0CN0_ADCM2
      00000098H   SFRSYM    DATA     BYTE      SCON0
      000000E8H.3 SFRSYM    DATA     BIT       ADC0CN0_ADWINT
      000000B4H   SFRSYM    DATA     WORD      SBRL1
      000000E5H   SFRSYM    DATA     BYTE      SMOD1
      000000D2H   SFRSYM    DATA     BYTE      SCON1
      000000BAH   SFRSYM    DATA     BYTE      AMX0N
      000000E8H.4 SFRSYM    DATA     BIT       ADC0CN0_ADBUSY
      000000CEH   SFRSYM    DATA     BYTE      SMB0ADM
      000000C5H   SFRSYM    DATA     BYTE      ADC0LTL
      000000F8H.5 SFRSYM    DATA     BIT       SPI0CN0_MODF
      000000B8H.6 SFRSYM    DATA     BIT       IP_PSPI0
      000000CEH   SFRSYM    DATA     BYTE      SMB1ADM
      000000BBH   SFRSYM    DATA     BYTE      AMX0P
      000000C8H.6 SFRSYM    DATA     BIT       TMR5CN0_TF5L
      000000C8H   SFRSYM    DATA     BYTE      TMR2CN0
LX51 LINKER/LOCATER V4.66.97.0                                                        01/21/2021  22:11:49  PAGE 71


      00000091H   SFRSYM    DATA     BYTE      TMR3CN0
      00000091H   SFRSYM    DATA     BYTE      TMR4CN0
      000000C8H   SFRSYM    DATA     BYTE      TMR5CN0
      000000CFH   SFRSYM    DATA     BYTE      SMB0ADR
      00000088H.4 SFRSYM    DATA     BIT       TCON_TR0
      000000CFH   SFRSYM    DATA     BYTE      SMB1ADR
      000000C8H.4 SFRSYM    DATA     BIT       TMR2CN0_TF2CEN
      00000088H.6 SFRSYM    DATA     BIT       TCON_TR1
      000000C2H   SFRSYM    DATA     BYTE      SMB0DAT
      000000CDH   SFRSYM    DATA     BYTE      TMR2H
      000000A1H   SFRSYM    DATA     BYTE      SPI0CFG
      000000C2H   SFRSYM    DATA     BYTE      SMB1DAT
      00000095H   SFRSYM    DATA     BYTE      TMR3H
      00000095H   SFRSYM    DATA     BYTE      TMR4H
      000000CDH   SFRSYM    DATA     BYTE      TMR5H
      000000CCH   SFRSYM    DATA     BYTE      TMR2L
      000000F8H.7 SFRSYM    DATA     BIT       SPI0CN0_SPIF
      00000096H   SFRSYM    DATA     BYTE      USB0ADR
      00000094H   SFRSYM    DATA     BYTE      TMR3L
      000000A8H.7 SFRSYM    DATA     BIT       IE_EA
      00000094H   SFRSYM    DATA     BYTE      TMR4L
      00000097H   SFRSYM    DATA     BYTE      USB0DAT
      000000CCH   SFRSYM    DATA     BYTE      TMR5L
      000000B6H   SFRSYM    DATA     BYTE      FLSCL
      000000C8H.5 SFRSYM    DATA     BIT       TMR2CN0_TF2LEN
      000000F8H.6 SFRSYM    DATA     BIT       SPI0CN0_WCOL
      000000F8H.2 SFRSYM    DATA     BIT       SPI0CN0_NSSMD0
      000000D0H.7 SFRSYM    DATA     BIT       PSW_CY
      000000A3H   SFRSYM    DATA     BYTE      SPI0DAT
      000000F8H.3 SFRSYM    DATA     BIT       SPI0CN0_NSSMD1
      000000BDH   SFRSYM    DATA     WORD      ADC0
      000000B9H   SFRSYM    DATA     BYTE      SMBTC
      000000D0H   SFRSYM    DATA     BYTE      PSW
      000000C8H.5 SFRSYM    DATA     BIT       TMR5CN0_TF5LEN
      000000B7H   SFRSYM    DATA     BYTE      FLKEY

      01001A9FH   BLOCK     CODE     ---       LVL=0
      01001A9FH   BLOCK     CODE     NEAR LAB  LVL=1
      0000003EH   SYMBOL    DATA     BYTE      SFRPAGE_save
      ---         BLOCKEND  ---      ---       LVL=1
      01001A9FH   LINE      CODE     ---       #25
      01001A9FH   LINE      CODE     ---       #28
      01001AA2H   LINE      CODE     ---       #29
      01001AA5H   LINE      CODE     ---       #30
      01001AA8H   LINE      CODE     ---       #31
      01001AABH   LINE      CODE     ---       #32
      01001AAEH   LINE      CODE     ---       #33
      01001AB1H   LINE      CODE     ---       #34
      01001AB4H   LINE      CODE     ---       #35
      01001AB7H   LINE      CODE     ---       #36
      01001ABAH   LINE      CODE     ---       #37
      01001ABDH   LINE      CODE     ---       #38
      01001AC0H   LINE      CODE     ---       #39
      01001AC3H   LINE      CODE     ---       #40
      01001AC6H   LINE      CODE     ---       #41
      01001AC9H   LINE      CODE     ---       #42
      01001ACCH   LINE      CODE     ---       #43
      01001ACFH   LINE      CODE     ---       #45
      01001AD2H   LINE      CODE     ---       #49
      ---         BLOCKEND  ---      ---       LVL=0

      01001E48H   BLOCK     CODE     ---       LVL=0
LX51 LINKER/LOCATER V4.66.97.0                                                        01/21/2021  22:11:49  PAGE 72


      01001E48H   LINE      CODE     ---       #55
      01001E48H   LINE      CODE     ---       #69
      01001E4BH   LINE      CODE     ---       #70
      01001E4EH   LINE      CODE     ---       #71
      01001E50H   LINE      CODE     ---       #85
      ---         BLOCKEND  ---      ---       LVL=0

      01001E20H   BLOCK     CODE     ---       LVL=0
      01001E20H   BLOCK     CODE     NEAR LAB  LVL=1
      00000007H   SYMBOL    DATA     BYTE      PCA0CN0_CR_save
      ---         BLOCKEND  ---      ---       LVL=1
      01001E20H   LINE      CODE     ---       #90
      01001E20H   LINE      CODE     ---       #91
      01001E24H   LINE      CODE     ---       #92
      01001E26H   LINE      CODE     ---       #113
      01001E29H   LINE      CODE     ---       #125
      ---         BLOCKEND  ---      ---       LVL=0

      01001E2AH   BLOCK     CODE     ---       LVL=0
      01001E2AH   BLOCK     CODE     NEAR LAB  LVL=1
      00000007H   SYMBOL    DATA     BYTE      PCA0CN0_CR_save
      ---         BLOCKEND  ---      ---       LVL=1
      01001E2AH   LINE      CODE     ---       #130
      01001E2AH   LINE      CODE     ---       #131
      01001E2EH   LINE      CODE     ---       #132
      01001E30H   LINE      CODE     ---       #153
      01001E33H   LINE      CODE     ---       #165
      ---         BLOCKEND  ---      ---       LVL=0

      01001D7AH   BLOCK     CODE     ---       LVL=0
      01001D7AH   LINE      CODE     ---       #170
      01001D7AH   LINE      CODE     ---       #171
      01001D7AH   LINE      CODE     ---       #173
      01001D7DH   LINE      CODE     ---       #174
      01001D80H   LINE      CODE     ---       #175
      01001D83H   LINE      CODE     ---       #178
      01001D86H   LINE      CODE     ---       #179
      ---         BLOCKEND  ---      ---       LVL=0

      01001D87H   BLOCK     CODE     ---       LVL=0
      01001D87H   LINE      CODE     ---       #184
      01001D87H   LINE      CODE     ---       #185
      01001D87H   LINE      CODE     ---       #187
      01001D8AH   LINE      CODE     ---       #188
      01001D8DH   LINE      CODE     ---       #189
      01001D90H   LINE      CODE     ---       #192
      01001D93H   LINE      CODE     ---       #193
      ---         BLOCKEND  ---      ---       LVL=0

      01001D94H   BLOCK     CODE     ---       LVL=0
      01001D94H   LINE      CODE     ---       #198
      01001D94H   LINE      CODE     ---       #199
      01001D94H   LINE      CODE     ---       #201
      01001D97H   LINE      CODE     ---       #202
      01001D9AH   LINE      CODE     ---       #203
      01001D9DH   LINE      CODE     ---       #206
      01001DA0H   LINE      CODE     ---       #207
      ---         BLOCKEND  ---      ---       LVL=0

      01001DA1H   BLOCK     CODE     ---       LVL=0
      01001DA1H   LINE      CODE     ---       #212
      01001DA1H   LINE      CODE     ---       #213
LX51 LINKER/LOCATER V4.66.97.0                                                        01/21/2021  22:11:49  PAGE 73


      01001DA1H   LINE      CODE     ---       #216
      01001DA4H   LINE      CODE     ---       #217
      01001DA7H   LINE      CODE     ---       #218
      01001DAAH   LINE      CODE     ---       #221
      01001DADH   LINE      CODE     ---       #222
      ---         BLOCKEND  ---      ---       LVL=0

      01001E34H   BLOCK     CODE     ---       LVL=0
      01001E34H   LINE      CODE     ---       #227
      01001E34H   LINE      CODE     ---       #228
      01001E34H   LINE      CODE     ---       #230
      01001E37H   LINE      CODE     ---       #231
      01001E3AH   LINE      CODE     ---       #232
      01001E3DH   LINE      CODE     ---       #233
      ---         BLOCKEND  ---      ---       LVL=0

      01001E7DH   BLOCK     CODE     ---       LVL=0
      01001E7DH   LINE      CODE     ---       #238
      01001E7DH   LINE      CODE     ---       #252
      01001E80H   LINE      CODE     ---       #263
      ---         BLOCKEND  ---      ---       LVL=0

      01001E81H   BLOCK     CODE     ---       LVL=0
      01001E81H   LINE      CODE     ---       #268
      01001E81H   LINE      CODE     ---       #278
      01001E84H   LINE      CODE     ---       #282
      ---         BLOCKEND  ---      ---       LVL=0

      01001E61H   BLOCK     CODE     ---       LVL=0
      01001E61H   LINE      CODE     ---       #287
      01001E61H   LINE      CODE     ---       #307
      01001E64H   LINE      CODE     ---       #332
      01001E67H   LINE      CODE     ---       #346
      ---         BLOCKEND  ---      ---       LVL=0

      01001E51H   BLOCK     CODE     ---       LVL=0
      01001E51H   LINE      CODE     ---       #351
      01001E51H   LINE      CODE     ---       #353
      ---         BLOCKEND  ---      ---       LVL=0

      01001E3EH   BLOCK     CODE     ---       LVL=0
      01001E3EH   BLOCK     CODE     NEAR LAB  LVL=1
      00000007H   SYMBOL    DATA     BYTE      PCA0CN0_CR_save
      ---         BLOCKEND  ---      ---       LVL=1
      01001E3EH   LINE      CODE     ---       #360
      01001E3EH   LINE      CODE     ---       #361
      01001E42H   LINE      CODE     ---       #362
      01001E44H   LINE      CODE     ---       #383
      01001E47H   LINE      CODE     ---       #395
      ---         BLOCKEND  ---      ---       LVL=0

      01001D29H   BLOCK     CODE     ---       LVL=0
      01001D29H   LINE      CODE     ---       #397
      01001D29H   LINE      CODE     ---       #398
      01001D29H   LINE      CODE     ---       #400
      01001D2CH   LINE      CODE     ---       #403
      01001D2FH   LINE      CODE     ---       #406
      01001D32H   LINE      CODE     ---       #409
      01001D35H   LINE      CODE     ---       #410
      01001D38H   LINE      CODE     ---       #411
      ---         BLOCKEND  ---      ---       LVL=0

LX51 LINKER/LOCATER V4.66.97.0                                                        01/21/2021  22:11:49  PAGE 74


      01001E85H   BLOCK     CODE     ---       LVL=0
      01001E85H   LINE      CODE     ---       #413
      01001E85H   LINE      CODE     ---       #414
      01001E85H   LINE      CODE     ---       #415
      01001E88H   LINE      CODE     ---       #416
      ---         BLOCKEND  ---      ---       LVL=0

      ---         MODULE    ---      ---       INTERRUPTS
      000000A2H   SFRSYM    DATA     BYTE      SPI0CKR
      00000080H   SFRSYM    DATA     BYTE      P0
      000000D0H.2 SFRSYM    DATA     BIT       PSW_OV
      000000B1H   SFRSYM    DATA     BYTE      XOSC0CN
      00000090H   SFRSYM    DATA     BYTE      P1
      000000A0H   SFRSYM    DATA     BYTE      P2
      000000B0H   SFRSYM    DATA     BYTE      P3
      000000BCH   SFRSYM    DATA     BYTE      ADC0CF
      000000C8H.0 SFRSYM    DATA     BIT       TMR2CN0_T2XCLK
      000000C7H   SFRSYM    DATA     BYTE      P4
      000000C0H.7 SFRSYM    DATA     BIT       SMB0CN0_MASTER
      000000F9H   SFRSYM    DATA     WORD      PCA0
      000000E6H   SFRSYM    DATA     BYTE      EIE1
      000000C0H.7 SFRSYM    DATA     BIT       SMB1CN0_MASTER
      000000C0H.1 SFRSYM    DATA     BIT       SMB0CN0_ACK
      000000D7H   SFRSYM    DATA     BYTE      USB0XCN
      000000E7H   SFRSYM    DATA     BYTE      EIE2
      000000C0H.1 SFRSYM    DATA     BIT       SMB1CN0_ACK
      0000008FH   SFRSYM    DATA     BYTE      PSCTL
      000000E4H   SFRSYM    DATA     BYTE      IT01CF
      000000C8H.0 SFRSYM    DATA     BIT       TMR5CN0_T5XCLK
      000000C0H.6 SFRSYM    DATA     BIT       SMB0CN0_TXMODE
      000000C0H.6 SFRSYM    DATA     BIT       SMB1CN0_TXMODE
      000000BFH   SFRSYM    DATA     BYTE      SFRPAGE
      000000A4H   SFRSYM    DATA     BYTE      P0MDOUT
      000000A5H   SFRSYM    DATA     BYTE      P1MDOUT
      000000E8H.5 SFRSYM    DATA     BIT       ADC0CN0_ADINT
      000000CBH   SFRSYM    DATA     BYTE      TMR2RLH
      000000A6H   SFRSYM    DATA     BYTE      P2MDOUT
      000000A8H   SFRSYM    DATA     BYTE      IE
      00000093H   SFRSYM    DATA     BYTE      TMR3RLH
      000000A7H   SFRSYM    DATA     BYTE      P3MDOUT
      00000093H   SFRSYM    DATA     BYTE      TMR4RLH
      000000AEH   SFRSYM    DATA     BYTE      P4MDOUT
      000000F6H   SFRSYM    DATA     BYTE      EIP1
      000000CBH   SFRSYM    DATA     BYTE      TMR5RLH
      000000F7H   SFRSYM    DATA     BYTE      EIP2
      00000098H.2 SFRSYM    DATA     BIT       SCON0_RB8
      000000CAH   SFRSYM    DATA     BYTE      TMR2RLL
      000000FCH   SFRSYM    DATA     BYTE      PCA0CPH0
      00000092H   SFRSYM    DATA     BYTE      TMR3RLL
      000000EAH   SFRSYM    DATA     BYTE      PCA0CPH1
      00000098H.3 SFRSYM    DATA     BIT       SCON0_TB8
      000000F0H.0 SFRSYM    DATA     BIT       B_B0
      00000082H   SFRSYM    DATA     WORD      DP
      00000092H   SFRSYM    DATA     BYTE      TMR4RLL
      000000ECH   SFRSYM    DATA     BYTE      PCA0CPH2
      000000F0H.1 SFRSYM    DATA     BIT       B_B1
      000000C3H   SFRSYM    DATA     WORD      ADC0GT
      000000CAH   SFRSYM    DATA     BYTE      TMR5RLL
      000000EEH   SFRSYM    DATA     BYTE      PCA0CPH3
      000000F0H.2 SFRSYM    DATA     BIT       B_B2
      000000FBH   SFRSYM    DATA     BYTE      PCA0CPL0
      000000FEH   SFRSYM    DATA     BYTE      PCA0CPH4
LX51 LINKER/LOCATER V4.66.97.0                                                        01/21/2021  22:11:49  PAGE 75


      00000085H   SFRSYM    DATA     BYTE      EMI0CF
      000000F0H.3 SFRSYM    DATA     BIT       B_B3
      000000D9H   SFRSYM    DATA     BYTE      PCA0MD
      000000DAH   SFRSYM    DATA     BYTE      PCA0CPM0
      000000E9H   SFRSYM    DATA     BYTE      PCA0CPL1
      000000F0H.4 SFRSYM    DATA     BIT       B_B4
      000000DBH   SFRSYM    DATA     BYTE      PCA0CPM1
      000000EBH   SFRSYM    DATA     BYTE      PCA0CPL2
      000000F0H.5 SFRSYM    DATA     BIT       B_B5
      000000DCH   SFRSYM    DATA     BYTE      PCA0CPM2
      000000EDH   SFRSYM    DATA     BYTE      PCA0CPL3
      000000B8H   SFRSYM    DATA     BYTE      IP
      000000F0H.6 SFRSYM    DATA     BIT       B_B6
      000000C5H   SFRSYM    DATA     WORD      ADC0LT
      000000DDH   SFRSYM    DATA     BYTE      PCA0CPM3
      000000FDH   SFRSYM    DATA     BYTE      PCA0CPL4
      00000098H.5 SFRSYM    DATA     BIT       SCON0_MCE
      000000F0H.7 SFRSYM    DATA     BIT       B_B7
      000000DEH   SFRSYM    DATA     BYTE      PCA0CPM4
      000000E1H   SFRSYM    DATA     BYTE      XBR0
      000000C1H   SFRSYM    DATA     BYTE      SMB0CF
      000000E2H   SFRSYM    DATA     BYTE      XBR1
      000000C1H   SFRSYM    DATA     BYTE      SMB1CF
      000000AFH   SFRSYM    DATA     BYTE      PFE0CN
      000000AAH   SFRSYM    DATA     BYTE      EMI0CN
      000000C0H.5 SFRSYM    DATA     BIT       SMB0CN0_STA
      000000E3H   SFRSYM    DATA     BYTE      XBR2
      000000C0H.5 SFRSYM    DATA     BIT       SMB1CN0_STA
      000000E0H.0 SFRSYM    DATA     BIT       ACC_ACC0
      000000D1H   SFRSYM    DATA     BYTE      REF0CN
      000000B2H   SFRSYM    DATA     BYTE      HFO0CN
      0000008EH   SFRSYM    DATA     BYTE      CKCON0
      000000E0H.1 SFRSYM    DATA     BIT       ACC_ACC1
      000000E4H   SFRSYM    DATA     BYTE      CKCON1
      000000C8H.2 SFRSYM    DATA     BIT       TMR2CN0_TR2
      000000E0H.2 SFRSYM    DATA     BIT       ACC_ACC2
      000000E0H.3 SFRSYM    DATA     BIT       ACC_ACC3
      00000081H   SFRSYM    DATA     BYTE      SP
      0000009DH   SFRSYM    DATA     BYTE      CMP0MD
      000000E0H.4 SFRSYM    DATA     BIT       ACC_ACC4
      00000086H   SFRSYM    DATA     BYTE      LFO0CN
      00000084H   SFRSYM    DATA     BYTE      EMI0TC
      0000009CH   SFRSYM    DATA     BYTE      CMP1MD
      000000D8H.0 SFRSYM    DATA     BIT       PCA0CN0_CCF0
      000000E0H.5 SFRSYM    DATA     BIT       ACC_ACC5
      000000D8H.1 SFRSYM    DATA     BIT       PCA0CN0_CCF1
      000000E0H.6 SFRSYM    DATA     BIT       ACC_ACC6
      000000CCH   SFRSYM    DATA     WORD      TMR2
      000000D8H.2 SFRSYM    DATA     BIT       PCA0CN0_CCF2
      000000E0H.7 SFRSYM    DATA     BIT       ACC_ACC7
      00000094H   SFRSYM    DATA     WORD      TMR3
      000000C8H.2 SFRSYM    DATA     BIT       TMR5CN0_TR5
      000000D8H.3 SFRSYM    DATA     BIT       PCA0CN0_CCF3
      00000094H   SFRSYM    DATA     WORD      TMR4
      000000ACH   SFRSYM    DATA     BYTE      SBCON1
      000000D8H.4 SFRSYM    DATA     BIT       PCA0CN0_CCF4
      000000CCH   SFRSYM    DATA     WORD      TMR5
      000000C0H.3 SFRSYM    DATA     BIT       SMB0CN0_ACKRQ
      000000FFH   SFRSYM    DATA     BYTE      VDM0CN
      000000F1H   SFRSYM    DATA     BYTE      P0MDIN
      000000C0H.3 SFRSYM    DATA     BIT       SMB1CN0_ACKRQ
      00000098H.4 SFRSYM    DATA     BIT       SCON0_REN
LX51 LINKER/LOCATER V4.66.97.0                                                        01/21/2021  22:11:49  PAGE 76


      000000F2H   SFRSYM    DATA     BYTE      P1MDIN
      000000F3H   SFRSYM    DATA     BYTE      P2MDIN
      000000C0H.4 SFRSYM    DATA     BIT       SMB0CN0_STO
      000000F4H   SFRSYM    DATA     BYTE      P3MDIN
      000000C0H.4 SFRSYM    DATA     BIT       SMB1CN0_STO
      000000B5H   SFRSYM    DATA     BYTE      SBRLH1
      000000F5H   SFRSYM    DATA     BYTE      P4MDIN
      000000D0H.3 SFRSYM    DATA     BIT       PSW_RS0
      000000D8H.7 SFRSYM    DATA     BIT       PCA0CN0_CF
      000000F8H.4 SFRSYM    DATA     BIT       SPI0CN0_RXOVRN
      000000D0H.4 SFRSYM    DATA     BIT       PSW_RS1
      000000B4H   SFRSYM    DATA     BYTE      SBRLL1
      000000E8H.7 SFRSYM    DATA     BIT       ADC0CN0_ADEN
      00000089H   SFRSYM    DATA     BYTE      TMOD
      00000088H   SFRSYM    DATA     BYTE      TCON
      000000D0H.0 SFRSYM    DATA     BIT       PSW_PARITY
      000000A8H.4 SFRSYM    DATA     BIT       IE_ES0
      0000009FH   SFRSYM    DATA     BYTE      CMP0MX
      000000A8H.1 SFRSYM    DATA     BIT       IE_ET0
      0000009EH   SFRSYM    DATA     BYTE      CMP1MX
      000000A8H.3 SFRSYM    DATA     BIT       IE_ET1
      000000D4H   SFRSYM    DATA     BYTE      P0SKIP
      000000C8H.1 SFRSYM    DATA     BIT       TMR2CN0_T2CSS
      000000A8H.5 SFRSYM    DATA     BIT       IE_ET2
      000000D5H   SFRSYM    DATA     BYTE      P1SKIP
      000000D6H   SFRSYM    DATA     BYTE      P2SKIP
      000000E8H   SFRSYM    DATA     BYTE      ADC0CN0
      000000A8H.0 SFRSYM    DATA     BIT       IE_EX0
      000000DFH   SFRSYM    DATA     BYTE      P3SKIP
      000000D8H.6 SFRSYM    DATA     BIT       PCA0CN0_CR
      000000A8H.2 SFRSYM    DATA     BIT       IE_EX1
      00000098H.7 SFRSYM    DATA     BIT       SCON0_SMODE
      000000A9H   SFRSYM    DATA     BYTE      CLKSEL
      000000F8H.0 SFRSYM    DATA     BIT       SPI0CN0_SPIEN
      000000F0H   SFRSYM    DATA     BYTE      B
      000000BEH   SFRSYM    DATA     BYTE      ADC0H
      000000E8H.6 SFRSYM    DATA     BIT       ADC0CN0_ADTM
      000000CAH   SFRSYM    DATA     WORD      TMR2RL
      000000BDH   SFRSYM    DATA     BYTE      ADC0L
      00000092H   SFRSYM    DATA     WORD      TMR3RL
      00000092H   SFRSYM    DATA     WORD      TMR4RL
      000000D8H   SFRSYM    DATA     BYTE      PCA0CN0
      000000E0H   SFRSYM    DATA     BYTE      ACC
      000000CAH   SFRSYM    DATA     WORD      TMR5RL
      000000FBH   SFRSYM    DATA     WORD      PCA0CP0
      000000E9H   SFRSYM    DATA     WORD      PCA0CP1
      000000EBH   SFRSYM    DATA     WORD      PCA0CP2
      000000EDH   SFRSYM    DATA     WORD      PCA0CP3
      0000008CH   SFRSYM    DATA     BYTE      TH0
      000000B8H.4 SFRSYM    DATA     BIT       IP_PS0
      000000FDH   SFRSYM    DATA     WORD      PCA0CP4
      0000008DH   SFRSYM    DATA     BYTE      TH1
      000000FAH   SFRSYM    DATA     BYTE      PCA0H
      000000B8H.1 SFRSYM    DATA     BIT       IP_PT0
      000000B8H.3 SFRSYM    DATA     BIT       IP_PT1
      000000C0H.2 SFRSYM    DATA     BIT       SMB0CN0_ARBLOST
      000000B8H.5 SFRSYM    DATA     BIT       IP_PT2
      0000008AH   SFRSYM    DATA     BYTE      TL0
      000000F8H.1 SFRSYM    DATA     BIT       SPI0CN0_TXBMT
      000000C0H.2 SFRSYM    DATA     BIT       SMB1CN0_ARBLOST
      000000D0H.5 SFRSYM    DATA     BIT       PSW_F0
      000000A8H.6 SFRSYM    DATA     BIT       IE_ESPI0
LX51 LINKER/LOCATER V4.66.97.0                                                        01/21/2021  22:11:49  PAGE 77


      0000008BH   SFRSYM    DATA     BYTE      TL1
      000000F9H   SFRSYM    DATA     BYTE      PCA0L
      000000C0H.0 SFRSYM    DATA     BIT       SMB0CN0_SI
      000000D0H.1 SFRSYM    DATA     BIT       PSW_F1
      00000080H.0 SFRSYM    DATA     BIT       P0_B0
      000000B8H.0 SFRSYM    DATA     BIT       IP_PX0
      000000C9H   SFRSYM    DATA     BYTE      REG01CN
      000000C0H.0 SFRSYM    DATA     BIT       SMB1CN0_SI
      00000090H.0 SFRSYM    DATA     BIT       P1_B0
      00000080H.1 SFRSYM    DATA     BIT       P0_B1
      000000B8H.2 SFRSYM    DATA     BIT       IP_PX1
      0000009BH   SFRSYM    DATA     BYTE      CMP0CN0
      00000088H.1 SFRSYM    DATA     BIT       TCON_IE0
      000000A0H.0 SFRSYM    DATA     BIT       P2_B0
      00000090H.1 SFRSYM    DATA     BIT       P1_B1
      00000080H.2 SFRSYM    DATA     BIT       P0_B2
      0000009AH   SFRSYM    DATA     BYTE      CMP1CN0
      00000088H.3 SFRSYM    DATA     BIT       TCON_IE1
      000000B0H.0 SFRSYM    DATA     BIT       P3_B0
      000000A0H.1 SFRSYM    DATA     BIT       P2_B1
      00000090H.2 SFRSYM    DATA     BIT       P1_B2
      00000080H.3 SFRSYM    DATA     BIT       P0_B3
      000000C0H   SFRSYM    DATA     BYTE      SMB0CN0
      000000B0H.1 SFRSYM    DATA     BIT       P3_B1
      000000A0H.2 SFRSYM    DATA     BIT       P2_B2
      00000090H.3 SFRSYM    DATA     BIT       P1_B3
      00000080H.4 SFRSYM    DATA     BIT       P0_B4
      000000C0H   SFRSYM    DATA     BYTE      SMB1CN0
      000000B0H.2 SFRSYM    DATA     BIT       P3_B2
      000000A0H.3 SFRSYM    DATA     BIT       P2_B3
      00000090H.4 SFRSYM    DATA     BIT       P1_B4
      00000080H.5 SFRSYM    DATA     BIT       P0_B5
      000000B0H.3 SFRSYM    DATA     BIT       P3_B3
      000000A0H.4 SFRSYM    DATA     BIT       P2_B4
      00000090H.5 SFRSYM    DATA     BIT       P1_B5
      00000080H.6 SFRSYM    DATA     BIT       P0_B6
      000000B0H.4 SFRSYM    DATA     BIT       P3_B4
      000000A0H.5 SFRSYM    DATA     BIT       P2_B5
      00000090H.6 SFRSYM    DATA     BIT       P1_B6
      00000080H.7 SFRSYM    DATA     BIT       P0_B7
      000000B0H.5 SFRSYM    DATA     BIT       P3_B5
      000000A0H.6 SFRSYM    DATA     BIT       P2_B6
      00000090H.7 SFRSYM    DATA     BIT       P1_B7
      000000B0H.6 SFRSYM    DATA     BIT       P3_B6
      000000A0H.7 SFRSYM    DATA     BIT       P2_B7
      000000B0H.7 SFRSYM    DATA     BIT       P3_B7
      00000083H   SFRSYM    DATA     BYTE      DPH
      000000C4H   SFRSYM    DATA     BYTE      ADC0GTH
      000000C8H.7 SFRSYM    DATA     BIT       TMR2CN0_TF2H
      000000C8H.3 SFRSYM    DATA     BIT       TMR2CN0_T2SPLIT
      000000D0H.6 SFRSYM    DATA     BIT       PSW_AC
      000000F8H   SFRSYM    DATA     BYTE      SPI0CN0
      000000B3H   SFRSYM    DATA     BYTE      HFO0CAL
      00000088H.5 SFRSYM    DATA     BIT       TCON_TF0
      00000098H.0 SFRSYM    DATA     BIT       SCON0_RI
      00000082H   SFRSYM    DATA     BYTE      DPL
      00000088H.7 SFRSYM    DATA     BIT       TCON_TF1
      00000099H   SFRSYM    DATA     BYTE      SBUF0
      00000087H   SFRSYM    DATA     BYTE      PCON0
      000000C3H   SFRSYM    DATA     BYTE      ADC0GTL
      000000C8H.6 SFRSYM    DATA     BIT       TMR2CN0_TF2L
      00000098H.1 SFRSYM    DATA     BIT       SCON0_TI
LX51 LINKER/LOCATER V4.66.97.0                                                        01/21/2021  22:11:49  PAGE 78


      000000E8H.0 SFRSYM    DATA     BIT       ADC0CN0_ADCM0
      000000D3H   SFRSYM    DATA     BYTE      SBUF1
      000000C6H   SFRSYM    DATA     BYTE      ADC0LTH
      00000088H.0 SFRSYM    DATA     BIT       TCON_IT0
      000000E8H.1 SFRSYM    DATA     BIT       ADC0CN0_ADCM1
      000000EFH   SFRSYM    DATA     BYTE      RSTSRC
      000000C8H.7 SFRSYM    DATA     BIT       TMR5CN0_TF5H
      000000C8H.3 SFRSYM    DATA     BIT       TMR5CN0_T5SPLIT
      00000088H.2 SFRSYM    DATA     BIT       TCON_IT1
      000000E8H.2 SFRSYM    DATA     BIT       ADC0CN0_ADCM2
      00000098H   SFRSYM    DATA     BYTE      SCON0
      000000E8H.3 SFRSYM    DATA     BIT       ADC0CN0_ADWINT
      000000B4H   SFRSYM    DATA     WORD      SBRL1
      000000E5H   SFRSYM    DATA     BYTE      SMOD1
      000000D2H   SFRSYM    DATA     BYTE      SCON1
      000000BAH   SFRSYM    DATA     BYTE      AMX0N
      000000E8H.4 SFRSYM    DATA     BIT       ADC0CN0_ADBUSY
      000000CEH   SFRSYM    DATA     BYTE      SMB0ADM
      000000C5H   SFRSYM    DATA     BYTE      ADC0LTL
      000000F8H.5 SFRSYM    DATA     BIT       SPI0CN0_MODF
      000000B8H.6 SFRSYM    DATA     BIT       IP_PSPI0
      000000CEH   SFRSYM    DATA     BYTE      SMB1ADM
      000000BBH   SFRSYM    DATA     BYTE      AMX0P
      000000C8H.6 SFRSYM    DATA     BIT       TMR5CN0_TF5L
      000000C8H   SFRSYM    DATA     BYTE      TMR2CN0
      00000091H   SFRSYM    DATA     BYTE      TMR3CN0
      00000091H   SFRSYM    DATA     BYTE      TMR4CN0
      000000C8H   SFRSYM    DATA     BYTE      TMR5CN0
      000000CFH   SFRSYM    DATA     BYTE      SMB0ADR
      00000088H.4 SFRSYM    DATA     BIT       TCON_TR0
      000000CFH   SFRSYM    DATA     BYTE      SMB1ADR
      000000C8H.4 SFRSYM    DATA     BIT       TMR2CN0_TF2CEN
      00000088H.6 SFRSYM    DATA     BIT       TCON_TR1
      000000C2H   SFRSYM    DATA     BYTE      SMB0DAT
      000000CDH   SFRSYM    DATA     BYTE      TMR2H
      000000A1H   SFRSYM    DATA     BYTE      SPI0CFG
      000000C2H   SFRSYM    DATA     BYTE      SMB1DAT
      00000095H   SFRSYM    DATA     BYTE      TMR3H
      00000095H   SFRSYM    DATA     BYTE      TMR4H
      000000CDH   SFRSYM    DATA     BYTE      TMR5H
      000000CCH   SFRSYM    DATA     BYTE      TMR2L
      000000F8H.7 SFRSYM    DATA     BIT       SPI0CN0_SPIF
      00000096H   SFRSYM    DATA     BYTE      USB0ADR
      00000094H   SFRSYM    DATA     BYTE      TMR3L
      000000A8H.7 SFRSYM    DATA     BIT       IE_EA
      00000094H   SFRSYM    DATA     BYTE      TMR4L
      00000097H   SFRSYM    DATA     BYTE      USB0DAT
      000000CCH   SFRSYM    DATA     BYTE      TMR5L
      000000B6H   SFRSYM    DATA     BYTE      FLSCL
      000000C8H.5 SFRSYM    DATA     BIT       TMR2CN0_TF2LEN
      000000F8H.6 SFRSYM    DATA     BIT       SPI0CN0_WCOL
      000000F8H.2 SFRSYM    DATA     BIT       SPI0CN0_NSSMD0
      000000D0H.7 SFRSYM    DATA     BIT       PSW_CY
      000000A3H   SFRSYM    DATA     BYTE      SPI0DAT
      000000F8H.3 SFRSYM    DATA     BIT       SPI0CN0_NSSMD1
      000000BDH   SFRSYM    DATA     WORD      ADC0
      000000B9H   SFRSYM    DATA     BYTE      SMBTC
      000000D0H   SFRSYM    DATA     BYTE      PSW
      000000C8H.5 SFRSYM    DATA     BIT       TMR5CN0_TF5LEN
      000000B7H   SFRSYM    DATA     BYTE      FLKEY

      ---         MODULE    ---      ---       ?C_STARTUP
LX51 LINKER/LOCATER V4.66.97.0                                                        01/21/2021  22:11:49  PAGE 79


      01000000H   PUBLIC    CODE     NEAR LAB  ?C_STARTUP
      000000E0H   SFRSYM    DATA     BYTE      ACC
      000000F0H   SFRSYM    DATA     BYTE      B
      00000083H   SFRSYM    DATA     BYTE      DPH
      00000082H   SFRSYM    DATA     BYTE      DPL
      000000A0H   SFRSYM    DATA     BYTE      PPAGE_SFR
      00000081H   SFRSYM    DATA     BYTE      SP
      00000000H   SYMBOL    NUMBER   ---       IBPSTACK
      00000100H   SYMBOL    NUMBER   ---       IBPSTACKTOP
      00000080H   SYMBOL    NUMBER   ---       IDATALEN
      010013D6H   SYMBOL    CODE     NEAR LAB  IDATALOOP
      00000000H   SYMBOL    NUMBER   ---       PBPSTACK
      00000100H   SYMBOL    NUMBER   ---       PBPSTACKTOP
      00000000H   SYMBOL    NUMBER   ---       PDATALEN
      00000000H   SYMBOL    NUMBER   ---       PDATASTART
      00000000H   SYMBOL    NUMBER   ---       PPAGE
      00000000H   SYMBOL    NUMBER   ---       PPAGEENABLE
      010013D0H   SYMBOL    CODE     NEAR LAB  STARTUP1
      00000000H   SYMBOL    NUMBER   ---       XBPSTACK
      00010000H   SYMBOL    NUMBER   ---       XBPSTACKTOP
      00000000H   SYMBOL    NUMBER   ---       XDATALEN
      00000000H   SYMBOL    NUMBER   ---       XDATASTART

      01000000H   BLOCK     CODE     NEAR LAB  LVL=0
      01000000H   LINE      CODE     ---       #126
      ---         BLOCKEND  ---      ---       LVL=0

      010013D0H   BLOCK     CODE     NEAR LAB  LVL=0
      010013D0H   LINE      CODE     ---       #134
      010013D3H   LINE      CODE     ---       #138
      010013D5H   LINE      CODE     ---       #139
      010013D6H   LINE      CODE     ---       #140
      010013D7H   LINE      CODE     ---       #141
      010013D9H   LINE      CODE     ---       #190
      010013DCH   LINE      CODE     ---       #201
      ---         BLOCKEND  ---      ---       LVL=0

      ---         MODULE    ---      ---       CALLBACK
      02000088H   PUBLIC    XDATA    ---       thisKeyScan
      02000080H   PUBLIC    XDATA    ---       lastKeyScan
      0000000AH   PUBLIC    DATA     BYTE      keyScanState
      02000040H   PUBLIC    XDATA    ---       txBuffer
      02000000H   PUBLIC    XDATA    ---       rxBuffer
      00000009H   PUBLIC    DATA     BYTE      tmpBuffer
      00000008H   PUBLIC    DATA     BYTE      keyReportNeeded
      00000029H   PUBLIC    DATA     BYTE      ?_USBD_XferCompleteCb?BYTE
      01001205H   PUBLIC    CODE     ---       _USBD_XferCompleteCb
      0100058EH   PUBLIC    CODE     ---       _USBD_SetupCmdCb
      01001E8EH   PUBLIC    CODE     ---       USBD_IsSelfPoweredCb
      0100198CH   PUBLIC    CODE     ---       _USBD_DeviceStateChangeCb
      010006E9H   PUBLIC    CODE     ---       _USBD_SofCb
      01001E90H   PUBLIC    CODE     ---       USBD_ResetCb
      000000A2H   SFRSYM    DATA     BYTE      SPI0CKR
      00000080H   SFRSYM    DATA     BYTE      P0
      000000D0H.2 SFRSYM    DATA     BIT       PSW_OV
      000000B1H   SFRSYM    DATA     BYTE      XOSC0CN
      00000090H   SFRSYM    DATA     BYTE      P1
      000000A0H   SFRSYM    DATA     BYTE      P2
      000000B0H   SFRSYM    DATA     BYTE      P3
      000000BCH   SFRSYM    DATA     BYTE      ADC0CF
      000000C8H.0 SFRSYM    DATA     BIT       TMR2CN0_T2XCLK
      000000C7H   SFRSYM    DATA     BYTE      P4
LX51 LINKER/LOCATER V4.66.97.0                                                        01/21/2021  22:11:49  PAGE 80


      000000C0H.7 SFRSYM    DATA     BIT       SMB0CN0_MASTER
      000000F9H   SFRSYM    DATA     WORD      PCA0
      000000E6H   SFRSYM    DATA     BYTE      EIE1
      000000C0H.7 SFRSYM    DATA     BIT       SMB1CN0_MASTER
      000000C0H.1 SFRSYM    DATA     BIT       SMB0CN0_ACK
      000000D7H   SFRSYM    DATA     BYTE      USB0XCN
      000000E7H   SFRSYM    DATA     BYTE      EIE2
      000000C0H.1 SFRSYM    DATA     BIT       SMB1CN0_ACK
      0000008FH   SFRSYM    DATA     BYTE      PSCTL
      000000E4H   SFRSYM    DATA     BYTE      IT01CF
      000000C8H.0 SFRSYM    DATA     BIT       TMR5CN0_T5XCLK
      000000C0H.6 SFRSYM    DATA     BIT       SMB0CN0_TXMODE
      000000C0H.6 SFRSYM    DATA     BIT       SMB1CN0_TXMODE
      000000BFH   SFRSYM    DATA     BYTE      SFRPAGE
      000000A4H   SFRSYM    DATA     BYTE      P0MDOUT
      000000A5H   SFRSYM    DATA     BYTE      P1MDOUT
      000000E8H.5 SFRSYM    DATA     BIT       ADC0CN0_ADINT
      000000CBH   SFRSYM    DATA     BYTE      TMR2RLH
      000000A6H   SFRSYM    DATA     BYTE      P2MDOUT
      000000A8H   SFRSYM    DATA     BYTE      IE
      00000093H   SFRSYM    DATA     BYTE      TMR3RLH
      000000A7H   SFRSYM    DATA     BYTE      P3MDOUT
      00000093H   SFRSYM    DATA     BYTE      TMR4RLH
      000000AEH   SFRSYM    DATA     BYTE      P4MDOUT
      000000F6H   SFRSYM    DATA     BYTE      EIP1
      000000CBH   SFRSYM    DATA     BYTE      TMR5RLH
      000000F7H   SFRSYM    DATA     BYTE      EIP2
      00000098H.2 SFRSYM    DATA     BIT       SCON0_RB8
      000000CAH   SFRSYM    DATA     BYTE      TMR2RLL
      000000FCH   SFRSYM    DATA     BYTE      PCA0CPH0
      00000092H   SFRSYM    DATA     BYTE      TMR3RLL
      000000EAH   SFRSYM    DATA     BYTE      PCA0CPH1
      00000098H.3 SFRSYM    DATA     BIT       SCON0_TB8
      000000F0H.0 SFRSYM    DATA     BIT       B_B0
      00000082H   SFRSYM    DATA     WORD      DP
      00000092H   SFRSYM    DATA     BYTE      TMR4RLL
      000000ECH   SFRSYM    DATA     BYTE      PCA0CPH2
      000000F0H.1 SFRSYM    DATA     BIT       B_B1
      000000C3H   SFRSYM    DATA     WORD      ADC0GT
      000000CAH   SFRSYM    DATA     BYTE      TMR5RLL
      000000EEH   SFRSYM    DATA     BYTE      PCA0CPH3
      000000F0H.2 SFRSYM    DATA     BIT       B_B2
      000000FBH   SFRSYM    DATA     BYTE      PCA0CPL0
      000000FEH   SFRSYM    DATA     BYTE      PCA0CPH4
      00000085H   SFRSYM    DATA     BYTE      EMI0CF
      000000F0H.3 SFRSYM    DATA     BIT       B_B3
      000000D9H   SFRSYM    DATA     BYTE      PCA0MD
      000000DAH   SFRSYM    DATA     BYTE      PCA0CPM0
      000000E9H   SFRSYM    DATA     BYTE      PCA0CPL1
      000000F0H.4 SFRSYM    DATA     BIT       B_B4
      000000DBH   SFRSYM    DATA     BYTE      PCA0CPM1
      000000EBH   SFRSYM    DATA     BYTE      PCA0CPL2
      000000F0H.5 SFRSYM    DATA     BIT       B_B5
      000000DCH   SFRSYM    DATA     BYTE      PCA0CPM2
      000000EDH   SFRSYM    DATA     BYTE      PCA0CPL3
      000000B8H   SFRSYM    DATA     BYTE      IP
      000000F0H.6 SFRSYM    DATA     BIT       B_B6
      000000C5H   SFRSYM    DATA     WORD      ADC0LT
      000000DDH   SFRSYM    DATA     BYTE      PCA0CPM3
      000000FDH   SFRSYM    DATA     BYTE      PCA0CPL4
      00000098H.5 SFRSYM    DATA     BIT       SCON0_MCE
      000000F0H.7 SFRSYM    DATA     BIT       B_B7
LX51 LINKER/LOCATER V4.66.97.0                                                        01/21/2021  22:11:49  PAGE 81


      000000DEH   SFRSYM    DATA     BYTE      PCA0CPM4
      000000E1H   SFRSYM    DATA     BYTE      XBR0
      000000C1H   SFRSYM    DATA     BYTE      SMB0CF
      000000E2H   SFRSYM    DATA     BYTE      XBR1
      000000C1H   SFRSYM    DATA     BYTE      SMB1CF
      000000AFH   SFRSYM    DATA     BYTE      PFE0CN
      000000AAH   SFRSYM    DATA     BYTE      EMI0CN
      000000C0H.5 SFRSYM    DATA     BIT       SMB0CN0_STA
      000000E3H   SFRSYM    DATA     BYTE      XBR2
      000000C0H.5 SFRSYM    DATA     BIT       SMB1CN0_STA
      000000E0H.0 SFRSYM    DATA     BIT       ACC_ACC0
      000000D1H   SFRSYM    DATA     BYTE      REF0CN
      000000B2H   SFRSYM    DATA     BYTE      HFO0CN
      0000008EH   SFRSYM    DATA     BYTE      CKCON0
      000000E0H.1 SFRSYM    DATA     BIT       ACC_ACC1
      000000E4H   SFRSYM    DATA     BYTE      CKCON1
      000000C8H.2 SFRSYM    DATA     BIT       TMR2CN0_TR2
      000000E0H.2 SFRSYM    DATA     BIT       ACC_ACC2
      000000E0H.3 SFRSYM    DATA     BIT       ACC_ACC3
      00000081H   SFRSYM    DATA     BYTE      SP
      0000009DH   SFRSYM    DATA     BYTE      CMP0MD
      000000E0H.4 SFRSYM    DATA     BIT       ACC_ACC4
      00000086H   SFRSYM    DATA     BYTE      LFO0CN
      00000084H   SFRSYM    DATA     BYTE      EMI0TC
      0000009CH   SFRSYM    DATA     BYTE      CMP1MD
      000000D8H.0 SFRSYM    DATA     BIT       PCA0CN0_CCF0
      000000E0H.5 SFRSYM    DATA     BIT       ACC_ACC5
      000000D8H.1 SFRSYM    DATA     BIT       PCA0CN0_CCF1
      000000E0H.6 SFRSYM    DATA     BIT       ACC_ACC6
      000000CCH   SFRSYM    DATA     WORD      TMR2
      000000D8H.2 SFRSYM    DATA     BIT       PCA0CN0_CCF2
      000000E0H.7 SFRSYM    DATA     BIT       ACC_ACC7
      00000094H   SFRSYM    DATA     WORD      TMR3
      000000C8H.2 SFRSYM    DATA     BIT       TMR5CN0_TR5
      000000D8H.3 SFRSYM    DATA     BIT       PCA0CN0_CCF3
      00000094H   SFRSYM    DATA     WORD      TMR4
      000000ACH   SFRSYM    DATA     BYTE      SBCON1
      000000D8H.4 SFRSYM    DATA     BIT       PCA0CN0_CCF4
      000000CCH   SFRSYM    DATA     WORD      TMR5
      000000C0H.3 SFRSYM    DATA     BIT       SMB0CN0_ACKRQ
      000000FFH   SFRSYM    DATA     BYTE      VDM0CN
      000000F1H   SFRSYM    DATA     BYTE      P0MDIN
      000000C0H.3 SFRSYM    DATA     BIT       SMB1CN0_ACKRQ
      00000098H.4 SFRSYM    DATA     BIT       SCON0_REN
      000000F2H   SFRSYM    DATA     BYTE      P1MDIN
      000000F3H   SFRSYM    DATA     BYTE      P2MDIN
      000000C0H.4 SFRSYM    DATA     BIT       SMB0CN0_STO
      000000F4H   SFRSYM    DATA     BYTE      P3MDIN
      000000C0H.4 SFRSYM    DATA     BIT       SMB1CN0_STO
      000000B5H   SFRSYM    DATA     BYTE      SBRLH1
      000000F5H   SFRSYM    DATA     BYTE      P4MDIN
      000000D0H.3 SFRSYM    DATA     BIT       PSW_RS0
      000000D8H.7 SFRSYM    DATA     BIT       PCA0CN0_CF
      000000F8H.4 SFRSYM    DATA     BIT       SPI0CN0_RXOVRN
      000000D0H.4 SFRSYM    DATA     BIT       PSW_RS1
      000000B4H   SFRSYM    DATA     BYTE      SBRLL1
      000000E8H.7 SFRSYM    DATA     BIT       ADC0CN0_ADEN
      00000089H   SFRSYM    DATA     BYTE      TMOD
      00000088H   SFRSYM    DATA     BYTE      TCON
      000000D0H.0 SFRSYM    DATA     BIT       PSW_PARITY
      000000A8H.4 SFRSYM    DATA     BIT       IE_ES0
      0000009FH   SFRSYM    DATA     BYTE      CMP0MX
LX51 LINKER/LOCATER V4.66.97.0                                                        01/21/2021  22:11:49  PAGE 82


      000000A8H.1 SFRSYM    DATA     BIT       IE_ET0
      0000009EH   SFRSYM    DATA     BYTE      CMP1MX
      000000A8H.3 SFRSYM    DATA     BIT       IE_ET1
      000000D4H   SFRSYM    DATA     BYTE      P0SKIP
      000000C8H.1 SFRSYM    DATA     BIT       TMR2CN0_T2CSS
      000000A8H.5 SFRSYM    DATA     BIT       IE_ET2
      000000D5H   SFRSYM    DATA     BYTE      P1SKIP
      000000D6H   SFRSYM    DATA     BYTE      P2SKIP
      000000E8H   SFRSYM    DATA     BYTE      ADC0CN0
      000000A8H.0 SFRSYM    DATA     BIT       IE_EX0
      000000DFH   SFRSYM    DATA     BYTE      P3SKIP
      000000D8H.6 SFRSYM    DATA     BIT       PCA0CN0_CR
      000000A8H.2 SFRSYM    DATA     BIT       IE_EX1
      00000098H.7 SFRSYM    DATA     BIT       SCON0_SMODE
      000000A9H   SFRSYM    DATA     BYTE      CLKSEL
      000000F8H.0 SFRSYM    DATA     BIT       SPI0CN0_SPIEN
      000000F0H   SFRSYM    DATA     BYTE      B
      000000BEH   SFRSYM    DATA     BYTE      ADC0H
      000000E8H.6 SFRSYM    DATA     BIT       ADC0CN0_ADTM
      000000CAH   SFRSYM    DATA     WORD      TMR2RL
      000000BDH   SFRSYM    DATA     BYTE      ADC0L
      00000092H   SFRSYM    DATA     WORD      TMR3RL
      00000092H   SFRSYM    DATA     WORD      TMR4RL
      000000D8H   SFRSYM    DATA     BYTE      PCA0CN0
      000000E0H   SFRSYM    DATA     BYTE      ACC
      000000CAH   SFRSYM    DATA     WORD      TMR5RL
      000000FBH   SFRSYM    DATA     WORD      PCA0CP0
      000000E9H   SFRSYM    DATA     WORD      PCA0CP1
      000000EBH   SFRSYM    DATA     WORD      PCA0CP2
      000000EDH   SFRSYM    DATA     WORD      PCA0CP3
      0000008CH   SFRSYM    DATA     BYTE      TH0
      000000B8H.4 SFRSYM    DATA     BIT       IP_PS0
      000000FDH   SFRSYM    DATA     WORD      PCA0CP4
      0000008DH   SFRSYM    DATA     BYTE      TH1
      000000FAH   SFRSYM    DATA     BYTE      PCA0H
      000000B8H.1 SFRSYM    DATA     BIT       IP_PT0
      000000B8H.3 SFRSYM    DATA     BIT       IP_PT1
      000000C0H.2 SFRSYM    DATA     BIT       SMB0CN0_ARBLOST
      000000B8H.5 SFRSYM    DATA     BIT       IP_PT2
      0000008AH   SFRSYM    DATA     BYTE      TL0
      000000F8H.1 SFRSYM    DATA     BIT       SPI0CN0_TXBMT
      000000C0H.2 SFRSYM    DATA     BIT       SMB1CN0_ARBLOST
      000000D0H.5 SFRSYM    DATA     BIT       PSW_F0
      000000A8H.6 SFRSYM    DATA     BIT       IE_ESPI0
      0000008BH   SFRSYM    DATA     BYTE      TL1
      000000F9H   SFRSYM    DATA     BYTE      PCA0L
      000000C0H.0 SFRSYM    DATA     BIT       SMB0CN0_SI
      000000D0H.1 SFRSYM    DATA     BIT       PSW_F1
      00000080H.0 SFRSYM    DATA     BIT       P0_B0
      000000B8H.0 SFRSYM    DATA     BIT       IP_PX0
      000000C9H   SFRSYM    DATA     BYTE      REG01CN
      000000C0H.0 SFRSYM    DATA     BIT       SMB1CN0_SI
      00000090H.0 SFRSYM    DATA     BIT       P1_B0
      00000080H.1 SFRSYM    DATA     BIT       P0_B1
      000000B8H.2 SFRSYM    DATA     BIT       IP_PX1
      0000009BH   SFRSYM    DATA     BYTE      CMP0CN0
      00000088H.1 SFRSYM    DATA     BIT       TCON_IE0
      000000A0H.0 SFRSYM    DATA     BIT       P2_B0
      00000090H.1 SFRSYM    DATA     BIT       P1_B1
      00000080H.2 SFRSYM    DATA     BIT       P0_B2
      0000009AH   SFRSYM    DATA     BYTE      CMP1CN0
      000000B0H.5 SFRSYM    DATA     BIT       LED
LX51 LINKER/LOCATER V4.66.97.0                                                        01/21/2021  22:11:49  PAGE 83


      00000088H.3 SFRSYM    DATA     BIT       TCON_IE1
      000000B0H.0 SFRSYM    DATA     BIT       P3_B0
      000000A0H.1 SFRSYM    DATA     BIT       P2_B1
      00000090H.2 SFRSYM    DATA     BIT       P1_B2
      00000080H.3 SFRSYM    DATA     BIT       P0_B3
      000000C0H   SFRSYM    DATA     BYTE      SMB0CN0
      000000B0H.1 SFRSYM    DATA     BIT       P3_B1
      000000A0H.2 SFRSYM    DATA     BIT       P2_B2
      00000090H.3 SFRSYM    DATA     BIT       P1_B3
      00000080H.4 SFRSYM    DATA     BIT       P0_B4
      000000C0H   SFRSYM    DATA     BYTE      SMB1CN0
      000000B0H.2 SFRSYM    DATA     BIT       P3_B2
      000000A0H.3 SFRSYM    DATA     BIT       P2_B3
      00000090H.4 SFRSYM    DATA     BIT       P1_B4
      00000080H.5 SFRSYM    DATA     BIT       P0_B5
      000000B0H.3 SFRSYM    DATA     BIT       P3_B3
      000000A0H.4 SFRSYM    DATA     BIT       P2_B4
      00000090H.5 SFRSYM    DATA     BIT       P1_B5
      00000080H.6 SFRSYM    DATA     BIT       P0_B6
      000000B0H.4 SFRSYM    DATA     BIT       P3_B4
      000000A0H.5 SFRSYM    DATA     BIT       P2_B5
      00000090H.6 SFRSYM    DATA     BIT       P1_B6
      00000080H.7 SFRSYM    DATA     BIT       P0_B7
      000000B0H.5 SFRSYM    DATA     BIT       P3_B5
      000000A0H.6 SFRSYM    DATA     BIT       P2_B6
      00000090H.7 SFRSYM    DATA     BIT       P1_B7
      000000B0H.6 SFRSYM    DATA     BIT       P3_B6
      000000A0H.7 SFRSYM    DATA     BIT       P2_B7
      000000B0H.7 SFRSYM    DATA     BIT       P3_B7
      00000083H   SFRSYM    DATA     BYTE      DPH
      000000C4H   SFRSYM    DATA     BYTE      ADC0GTH
      000000C8H.7 SFRSYM    DATA     BIT       TMR2CN0_TF2H
      000000C8H.3 SFRSYM    DATA     BIT       TMR2CN0_T2SPLIT
      000000A0H.1 SFRSYM    DATA     BIT       DIR
      000000D0H.6 SFRSYM    DATA     BIT       PSW_AC
      000000F8H   SFRSYM    DATA     BYTE      SPI0CN0
      000000B3H   SFRSYM    DATA     BYTE      HFO0CAL
      00000088H.5 SFRSYM    DATA     BIT       TCON_TF0
      00000098H.0 SFRSYM    DATA     BIT       SCON0_RI
      00000082H   SFRSYM    DATA     BYTE      DPL
      00000088H.7 SFRSYM    DATA     BIT       TCON_TF1
      00000099H   SFRSYM    DATA     BYTE      SBUF0
      00000087H   SFRSYM    DATA     BYTE      PCON0
      000000C3H   SFRSYM    DATA     BYTE      ADC0GTL
      000000C8H.6 SFRSYM    DATA     BIT       TMR2CN0_TF2L
      00000098H.1 SFRSYM    DATA     BIT       SCON0_TI
      000000E8H.0 SFRSYM    DATA     BIT       ADC0CN0_ADCM0
      000000D3H   SFRSYM    DATA     BYTE      SBUF1
      000000C6H   SFRSYM    DATA     BYTE      ADC0LTH
      00000088H.0 SFRSYM    DATA     BIT       TCON_IT0
      000000E8H.1 SFRSYM    DATA     BIT       ADC0CN0_ADCM1
      000000EFH   SFRSYM    DATA     BYTE      RSTSRC
      000000A0H.2 SFRSYM    DATA     BIT       CS_n
      000000C8H.7 SFRSYM    DATA     BIT       TMR5CN0_TF5H
      000000C8H.3 SFRSYM    DATA     BIT       TMR5CN0_T5SPLIT
      00000088H.2 SFRSYM    DATA     BIT       TCON_IT1
      000000E8H.2 SFRSYM    DATA     BIT       ADC0CN0_ADCM2
      00000098H   SFRSYM    DATA     BYTE      SCON0
      000000E8H.3 SFRSYM    DATA     BIT       ADC0CN0_ADWINT
      000000B4H   SFRSYM    DATA     WORD      SBRL1
      000000E5H   SFRSYM    DATA     BYTE      SMOD1
      000000D2H   SFRSYM    DATA     BYTE      SCON1
LX51 LINKER/LOCATER V4.66.97.0                                                        01/21/2021  22:11:49  PAGE 84


      000000BAH   SFRSYM    DATA     BYTE      AMX0N
      000000E8H.4 SFRSYM    DATA     BIT       ADC0CN0_ADBUSY
      000000CEH   SFRSYM    DATA     BYTE      SMB0ADM
      000000C5H   SFRSYM    DATA     BYTE      ADC0LTL
      000000F8H.5 SFRSYM    DATA     BIT       SPI0CN0_MODF
      000000B8H.6 SFRSYM    DATA     BIT       IP_PSPI0
      000000CEH   SFRSYM    DATA     BYTE      SMB1ADM
      000000BBH   SFRSYM    DATA     BYTE      AMX0P
      000000C8H.6 SFRSYM    DATA     BIT       TMR5CN0_TF5L
      000000C8H   SFRSYM    DATA     BYTE      TMR2CN0
      00000091H   SFRSYM    DATA     BYTE      TMR3CN0
      00000091H   SFRSYM    DATA     BYTE      TMR4CN0
      000000C8H   SFRSYM    DATA     BYTE      TMR5CN0
      000000CFH   SFRSYM    DATA     BYTE      SMB0ADR
      00000088H.4 SFRSYM    DATA     BIT       TCON_TR0
      000000CFH   SFRSYM    DATA     BYTE      SMB1ADR
      000000C8H.4 SFRSYM    DATA     BIT       TMR2CN0_TF2CEN
      00000088H.6 SFRSYM    DATA     BIT       TCON_TR1
      000000C2H   SFRSYM    DATA     BYTE      SMB0DAT
      000000CDH   SFRSYM    DATA     BYTE      TMR2H
      000000A1H   SFRSYM    DATA     BYTE      SPI0CFG
      000000C2H   SFRSYM    DATA     BYTE      SMB1DAT
      00000095H   SFRSYM    DATA     BYTE      TMR3H
      00000095H   SFRSYM    DATA     BYTE      TMR4H
      000000CDH   SFRSYM    DATA     BYTE      TMR5H
      000000CCH   SFRSYM    DATA     BYTE      TMR2L
      000000F8H.7 SFRSYM    DATA     BIT       SPI0CN0_SPIF
      00000096H   SFRSYM    DATA     BYTE      USB0ADR
      00000094H   SFRSYM    DATA     BYTE      TMR3L
      000000A8H.7 SFRSYM    DATA     BIT       IE_EA
      00000094H   SFRSYM    DATA     BYTE      TMR4L
      00000097H   SFRSYM    DATA     BYTE      USB0DAT
      000000CCH   SFRSYM    DATA     BYTE      TMR5L
      000000B6H   SFRSYM    DATA     BYTE      FLSCL
      000000C8H.5 SFRSYM    DATA     BIT       TMR2CN0_TF2LEN
      000000F8H.6 SFRSYM    DATA     BIT       SPI0CN0_WCOL
      000000F8H.2 SFRSYM    DATA     BIT       SPI0CN0_NSSMD0
      000000D0H.7 SFRSYM    DATA     BIT       PSW_CY
      000000A3H   SFRSYM    DATA     BYTE      SPI0DAT
      000000F8H.3 SFRSYM    DATA     BIT       SPI0CN0_NSSMD1
      000000BDH   SFRSYM    DATA     WORD      ADC0
      000000B9H   SFRSYM    DATA     BYTE      SMBTC
      000000D0H   SFRSYM    DATA     BYTE      PSW
      000000C8H.5 SFRSYM    DATA     BIT       TMR5CN0_TF5LEN
      000000B7H   SFRSYM    DATA     BYTE      FLKEY

      01001E90H   BLOCK     CODE     ---       LVL=0
      01001E90H   LINE      CODE     ---       #32
      01001E90H   LINE      CODE     ---       #33
      01001E90H   LINE      CODE     ---       #35
      ---         BLOCKEND  ---      ---       LVL=0

      010006E9H   BLOCK     CODE     ---       LVL=0
      00000025H   SYMBOL    DATA     WORD      sofNr
      010006EDH   BLOCK     CODE     NEAR LAB  LVL=1
      00000007H   SYMBOL    DATA     BYTE      i
      00000027H   SYMBOL    DATA     BYTE      jjj
      ---         BLOCKEND  ---      ---       LVL=1
      010006E9H   LINE      CODE     ---       #37
      010006EDH   LINE      CODE     ---       #38
      010006EDH   LINE      CODE     ---       #42
      010006EDH   LINE      CODE     ---       #44
LX51 LINKER/LOCATER V4.66.97.0                                                        01/21/2021  22:11:49  PAGE 85


      010006F0H   LINE      CODE     ---       #46
      010006F7H   LINE      CODE     ---       #47
      01000702H   LINE      CODE     ---       #48
      01000707H   LINE      CODE     ---       #50
      0100070AH   LINE      CODE     ---       #51
      0100070CH   LINE      CODE     ---       #52
      0100070FH   LINE      CODE     ---       #53
      01000721H   LINE      CODE     ---       #54
      01000723H   LINE      CODE     ---       #55
      01000725H   LINE      CODE     ---       #56
      01000727H   LINE      CODE     ---       #58
      0100072AH   LINE      CODE     ---       #59
      0100072CH   LINE      CODE     ---       #60
      0100072FH   LINE      CODE     ---       #61
      01000731H   LINE      CODE     ---       #62
      0100073FH   LINE      CODE     ---       #63
      01000743H   LINE      CODE     ---       #64
      01000756H   LINE      CODE     ---       #65
      01000758H   LINE      CODE     ---       #66
      0100075AH   LINE      CODE     ---       #67
      0100075DH   LINE      CODE     ---       #68
      0100075DH   LINE      CODE     ---       #69
      0100075FH   LINE      CODE     ---       #70
      01000761H   LINE      CODE     ---       #71
      01000764H   LINE      CODE     ---       #72
      01000766H   LINE      CODE     ---       #73
      01000769H   LINE      CODE     ---       #74
      0100076CH   LINE      CODE     ---       #75
      0100076EH   LINE      CODE     ---       #76
      01000770H   LINE      CODE     ---       #77
      0100077BH   LINE      CODE     ---       #78
      01000796H   LINE      CODE     ---       #79
      01000799H   LINE      CODE     ---       #80
      01000799H   LINE      CODE     ---       #81
      010007A5H   LINE      CODE     ---       #82
      010007A8H   LINE      CODE     ---       #83
      010007ABH   LINE      CODE     ---       #84
      010007ABH   LINE      CODE     ---       #85
      010007ABH   LINE      CODE     ---       #88
      010007B0H   LINE      CODE     ---       #89
      010007B0H   LINE      CODE     ---       #90
      010007B7H   LINE      CODE     ---       #91
      010007BBH   LINE      CODE     ---       #92
      010007C1H   LINE      CODE     ---       #93
      010007C9H   LINE      CODE     ---       #94
      010007D1H   LINE      CODE     ---       #95
      010007D9H   LINE      CODE     ---       #96
      010007E1H   LINE      CODE     ---       #97
      010007E9H   LINE      CODE     ---       #98
      010007F1H   LINE      CODE     ---       #99
      010007F9H   LINE      CODE     ---       #100
      01000801H   LINE      CODE     ---       #101
      01000814H   LINE      CODE     ---       #102
      01000817H   LINE      CODE     ---       #103
      01000817H   LINE      CODE     ---       #104
      01000817H   LINE      CODE     ---       #105
      01000817H   LINE      CODE     ---       #106
      ---         BLOCKEND  ---      ---       LVL=0

      0100198CH   BLOCK     CODE     ---       LVL=0
      00000029H   SYMBOL    DATA     BYTE      oldState
      0000002AH   SYMBOL    DATA     BYTE      newState
LX51 LINKER/LOCATER V4.66.97.0                                                        01/21/2021  22:11:49  PAGE 86


      0100198CH   LINE      CODE     ---       #108
      01001990H   LINE      CODE     ---       #110
      01001990H   LINE      CODE     ---       #112
      0100199EH   LINE      CODE     ---       #113
      0100199EH   LINE      CODE     ---       #114
      0100199EH   LINE      CODE     ---       #116
      010019A3H   LINE      CODE     ---       #117
      010019A3H   LINE      CODE     ---       #119
      010019A8H   LINE      CODE     ---       #120
      010019A8H   LINE      CODE     ---       #121
      010019AEH   LINE      CODE     ---       #122
      010019AEH   LINE      CODE     ---       #123
      010019B3H   LINE      CODE     ---       #124
      010019C6H   LINE      CODE     ---       #125
      010019C6H   LINE      CODE     ---       #128
      010019C6H   LINE      CODE     ---       #129
      010019C6H   LINE      CODE     ---       #130
      010019C6H   LINE      CODE     ---       #131
      ---         BLOCKEND  ---      ---       LVL=0

      01001E8EH   BLOCK     CODE     ---       LVL=0
      01001E8EH   LINE      CODE     ---       #133
      01001E8EH   LINE      CODE     ---       #134
      01001E8EH   LINE      CODE     ---       #135
      01001E8FH   LINE      CODE     ---       #136
      ---         BLOCKEND  ---      ---       LVL=0

      0100058EH   BLOCK     CODE     ---       LVL=0
      00000026H   SYMBOL    DATA     ---       setup
      01000590H   BLOCK     CODE     NEAR LAB  LVL=1
      00000027H   SYMBOL    DATA     CHAR      retVal
      ---         BLOCKEND  ---      ---       LVL=1
      0100058EH   LINE      CODE     ---       #138
      01000590H   LINE      CODE     ---       #142
      01000590H   LINE      CODE     ---       #143
      01000593H   LINE      CODE     ---       #145
      010005B8H   LINE      CODE     ---       #148
      010005B8H   LINE      CODE     ---       #151
      010005C3H   LINE      CODE     ---       #152
      010005C3H   LINE      CODE     ---       #153
      010005C3H   LINE      CODE     ---       #154
      010005CDH   LINE      CODE     ---       #155
      010005CDH   LINE      CODE     ---       #156
      010005E1H   LINE      CODE     ---       #157
      010005E1H   LINE      CODE     ---       #158
      010005E1H   LINE      CODE     ---       #161
      01000603H   LINE      CODE     ---       #164
      01000603H   LINE      CODE     ---       #165
      01000605H   LINE      CODE     ---       #167
      01000605H   LINE      CODE     ---       #168
      01000605H   LINE      CODE     ---       #169
      01000605H   LINE      CODE     ---       #170
      01000605H   LINE      CODE     ---       #171
      01000612H   LINE      CODE     ---       #172
      01000612H   LINE      CODE     ---       #173
      01000626H   LINE      CODE     ---       #174
      01000626H   LINE      CODE     ---       #175
      01000626H   LINE      CODE     ---       #178
      0100064CH   LINE      CODE     ---       #181
      0100064CH   LINE      CODE     ---       #182
      0100064FH   LINE      CODE     ---       #184
      0100064FH   LINE      CODE     ---       #185
LX51 LINKER/LOCATER V4.66.97.0                                                        01/21/2021  22:11:49  PAGE 87


      0100064FH   LINE      CODE     ---       #186
      0100064FH   LINE      CODE     ---       #187
      0100064FH   LINE      CODE     ---       #188
      0100064FH   LINE      CODE     ---       #189
      0100064FH   LINE      CODE     ---       #190
      0100064FH   LINE      CODE     ---       #191
      01000671H   LINE      CODE     ---       #194
      01000671H   LINE      CODE     ---       #196
      0100067DH   LINE      CODE     ---       #197
      0100067DH   LINE      CODE     ---       #198
      0100067DH   LINE      CODE     ---       #199
      010006A0H   LINE      CODE     ---       #202
      010006A0H   LINE      CODE     ---       #203
      010006A5H   LINE      CODE     ---       #204
      010006A5H   LINE      CODE     ---       #205
      010006A5H   LINE      CODE     ---       #206
      010006A7H   LINE      CODE     ---       #208
      010006A7H   LINE      CODE     ---       #209
      010006CBH   LINE      CODE     ---       #212
      010006CBH   LINE      CODE     ---       #213
      010006D0H   LINE      CODE     ---       #214
      010006E3H   LINE      CODE     ---       #215
      010006E6H   LINE      CODE     ---       #216
      010006E6H   LINE      CODE     ---       #217
      010006E6H   LINE      CODE     ---       #218
      010006E6H   LINE      CODE     ---       #219
      010006E6H   LINE      CODE     ---       #221
      010006E8H   LINE      CODE     ---       #222
      ---         BLOCKEND  ---      ---       LVL=0

      01001205H   BLOCK     CODE     ---       LVL=0
      00000007H   SYMBOL    DATA     BYTE      epAddr
      0000002AH   SYMBOL    DATA     CHAR      status
      0000002BH   SYMBOL    DATA     WORD      xferred
      0000002DH   SYMBOL    DATA     WORD      remaining
      0100120BH   BLOCK     CODE     NEAR LAB  LVL=1
      0000002FH   SYMBOL    DATA     BYTE      i
      ---         BLOCKEND  ---      ---       LVL=1
      01001205H   LINE      CODE     ---       #224
      0100120BH   LINE      CODE     ---       #228
      0100120BH   LINE      CODE     ---       #231
      0100120BH   LINE      CODE     ---       #232
      0100120BH   LINE      CODE     ---       #233
      0100120BH   LINE      CODE     ---       #235
      01001213H   LINE      CODE     ---       #236
      0100121EH   LINE      CODE     ---       #238
      01001223H   LINE      CODE     ---       #239
      0100122BH   LINE      CODE     ---       #240
      01001239H   LINE      CODE     ---       #241
      01001253H   LINE      CODE     ---       #242
      01001257H   LINE      CODE     ---       #243
      0100125DH   LINE      CODE     ---       #245
      01001262H   LINE      CODE     ---       #246
      01001270H   LINE      CODE     ---       #247
      0100128AH   LINE      CODE     ---       #248
      0100128EH   LINE      CODE     ---       #249
      0100128EH   LINE      CODE     ---       #250
      010012A1H   LINE      CODE     ---       #251
      010012A1H   LINE      CODE     ---       #253
      010012A4H   LINE      CODE     ---       #254
      ---         BLOCKEND  ---      ---       LVL=0

LX51 LINKER/LOCATER V4.66.97.0                                                        01/21/2021  22:11:49  PAGE 88


      ---         MODULE    ---      ---       DESCRIPTORS
      01001F5DH   PUBLIC    CONST    ---       initstruct
      01001ECDH   PUBLIC    CONST    ---       ReportDescriptor0
      01001EA4H   PUBLIC    CONST    ---       configDesc
      01001E92H   PUBLIC    CONST    ---       deviceDesc
      000000A2H   SFRSYM    DATA     BYTE      SPI0CKR
      00000080H   SFRSYM    DATA     BYTE      P0
      000000D0H.2 SFRSYM    DATA     BIT       PSW_OV
      000000B1H   SFRSYM    DATA     BYTE      XOSC0CN
      00000090H   SFRSYM    DATA     BYTE      P1
      000000A0H   SFRSYM    DATA     BYTE      P2
      000000B0H   SFRSYM    DATA     BYTE      P3
      000000BCH   SFRSYM    DATA     BYTE      ADC0CF
      000000C8H.0 SFRSYM    DATA     BIT       TMR2CN0_T2XCLK
      000000C7H   SFRSYM    DATA     BYTE      P4
      000000C0H.7 SFRSYM    DATA     BIT       SMB0CN0_MASTER
      000000F9H   SFRSYM    DATA     WORD      PCA0
      000000E6H   SFRSYM    DATA     BYTE      EIE1
      000000C0H.7 SFRSYM    DATA     BIT       SMB1CN0_MASTER
      000000C0H.1 SFRSYM    DATA     BIT       SMB0CN0_ACK
      000000D7H   SFRSYM    DATA     BYTE      USB0XCN
      000000E7H   SFRSYM    DATA     BYTE      EIE2
      000000C0H.1 SFRSYM    DATA     BIT       SMB1CN0_ACK
      0000008FH   SFRSYM    DATA     BYTE      PSCTL
      000000E4H   SFRSYM    DATA     BYTE      IT01CF
      000000C8H.0 SFRSYM    DATA     BIT       TMR5CN0_T5XCLK
      000000C0H.6 SFRSYM    DATA     BIT       SMB0CN0_TXMODE
      000000C0H.6 SFRSYM    DATA     BIT       SMB1CN0_TXMODE
      000000BFH   SFRSYM    DATA     BYTE      SFRPAGE
      000000A4H   SFRSYM    DATA     BYTE      P0MDOUT
      000000A5H   SFRSYM    DATA     BYTE      P1MDOUT
      000000E8H.5 SFRSYM    DATA     BIT       ADC0CN0_ADINT
      000000CBH   SFRSYM    DATA     BYTE      TMR2RLH
      000000A6H   SFRSYM    DATA     BYTE      P2MDOUT
      000000A8H   SFRSYM    DATA     BYTE      IE
      00000093H   SFRSYM    DATA     BYTE      TMR3RLH
      000000A7H   SFRSYM    DATA     BYTE      P3MDOUT
      00000093H   SFRSYM    DATA     BYTE      TMR4RLH
      000000AEH   SFRSYM    DATA     BYTE      P4MDOUT
      000000F6H   SFRSYM    DATA     BYTE      EIP1
      000000CBH   SFRSYM    DATA     BYTE      TMR5RLH
      000000F7H   SFRSYM    DATA     BYTE      EIP2
      00000098H.2 SFRSYM    DATA     BIT       SCON0_RB8
      000000CAH   SFRSYM    DATA     BYTE      TMR2RLL
      000000FCH   SFRSYM    DATA     BYTE      PCA0CPH0
      00000092H   SFRSYM    DATA     BYTE      TMR3RLL
      000000EAH   SFRSYM    DATA     BYTE      PCA0CPH1
      00000098H.3 SFRSYM    DATA     BIT       SCON0_TB8
      000000F0H.0 SFRSYM    DATA     BIT       B_B0
      00000082H   SFRSYM    DATA     WORD      DP
      00000092H   SFRSYM    DATA     BYTE      TMR4RLL
      000000ECH   SFRSYM    DATA     BYTE      PCA0CPH2
      000000F0H.1 SFRSYM    DATA     BIT       B_B1
      000000C3H   SFRSYM    DATA     WORD      ADC0GT
      000000CAH   SFRSYM    DATA     BYTE      TMR5RLL
      000000EEH   SFRSYM    DATA     BYTE      PCA0CPH3
      000000F0H.2 SFRSYM    DATA     BIT       B_B2
      000000FBH   SFRSYM    DATA     BYTE      PCA0CPL0
      000000FEH   SFRSYM    DATA     BYTE      PCA0CPH4
      00000085H   SFRSYM    DATA     BYTE      EMI0CF
      000000F0H.3 SFRSYM    DATA     BIT       B_B3
      000000D9H   SFRSYM    DATA     BYTE      PCA0MD
LX51 LINKER/LOCATER V4.66.97.0                                                        01/21/2021  22:11:49  PAGE 89


      000000DAH   SFRSYM    DATA     BYTE      PCA0CPM0
      000000E9H   SFRSYM    DATA     BYTE      PCA0CPL1
      000000F0H.4 SFRSYM    DATA     BIT       B_B4
      000000DBH   SFRSYM    DATA     BYTE      PCA0CPM1
      000000EBH   SFRSYM    DATA     BYTE      PCA0CPL2
      000000F0H.5 SFRSYM    DATA     BIT       B_B5
      000000DCH   SFRSYM    DATA     BYTE      PCA0CPM2
      000000EDH   SFRSYM    DATA     BYTE      PCA0CPL3
      000000B8H   SFRSYM    DATA     BYTE      IP
      000000F0H.6 SFRSYM    DATA     BIT       B_B6
      000000C5H   SFRSYM    DATA     WORD      ADC0LT
      000000DDH   SFRSYM    DATA     BYTE      PCA0CPM3
      000000FDH   SFRSYM    DATA     BYTE      PCA0CPL4
      00000098H.5 SFRSYM    DATA     BIT       SCON0_MCE
      000000F0H.7 SFRSYM    DATA     BIT       B_B7
      000000DEH   SFRSYM    DATA     BYTE      PCA0CPM4
      000000E1H   SFRSYM    DATA     BYTE      XBR0
      000000C1H   SFRSYM    DATA     BYTE      SMB0CF
      000000E2H   SFRSYM    DATA     BYTE      XBR1
      000000C1H   SFRSYM    DATA     BYTE      SMB1CF
      000000AFH   SFRSYM    DATA     BYTE      PFE0CN
      000000AAH   SFRSYM    DATA     BYTE      EMI0CN
      000000C0H.5 SFRSYM    DATA     BIT       SMB0CN0_STA
      000000E3H   SFRSYM    DATA     BYTE      XBR2
      000000C0H.5 SFRSYM    DATA     BIT       SMB1CN0_STA
      000000E0H.0 SFRSYM    DATA     BIT       ACC_ACC0
      000000D1H   SFRSYM    DATA     BYTE      REF0CN
      000000B2H   SFRSYM    DATA     BYTE      HFO0CN
      0000008EH   SFRSYM    DATA     BYTE      CKCON0
      000000E0H.1 SFRSYM    DATA     BIT       ACC_ACC1
      000000E4H   SFRSYM    DATA     BYTE      CKCON1
      000000C8H.2 SFRSYM    DATA     BIT       TMR2CN0_TR2
      000000E0H.2 SFRSYM    DATA     BIT       ACC_ACC2
      000000E0H.3 SFRSYM    DATA     BIT       ACC_ACC3
      00000081H   SFRSYM    DATA     BYTE      SP
      0000009DH   SFRSYM    DATA     BYTE      CMP0MD
      000000E0H.4 SFRSYM    DATA     BIT       ACC_ACC4
      00000086H   SFRSYM    DATA     BYTE      LFO0CN
      00000084H   SFRSYM    DATA     BYTE      EMI0TC
      0000009CH   SFRSYM    DATA     BYTE      CMP1MD
      000000D8H.0 SFRSYM    DATA     BIT       PCA0CN0_CCF0
      000000E0H.5 SFRSYM    DATA     BIT       ACC_ACC5
      000000D8H.1 SFRSYM    DATA     BIT       PCA0CN0_CCF1
      000000E0H.6 SFRSYM    DATA     BIT       ACC_ACC6
      000000CCH   SFRSYM    DATA     WORD      TMR2
      000000D8H.2 SFRSYM    DATA     BIT       PCA0CN0_CCF2
      000000E0H.7 SFRSYM    DATA     BIT       ACC_ACC7
      00000094H   SFRSYM    DATA     WORD      TMR3
      000000C8H.2 SFRSYM    DATA     BIT       TMR5CN0_TR5
      000000D8H.3 SFRSYM    DATA     BIT       PCA0CN0_CCF3
      00000094H   SFRSYM    DATA     WORD      TMR4
      000000ACH   SFRSYM    DATA     BYTE      SBCON1
      000000D8H.4 SFRSYM    DATA     BIT       PCA0CN0_CCF4
      000000CCH   SFRSYM    DATA     WORD      TMR5
      000000C0H.3 SFRSYM    DATA     BIT       SMB0CN0_ACKRQ
      000000FFH   SFRSYM    DATA     BYTE      VDM0CN
      000000F1H   SFRSYM    DATA     BYTE      P0MDIN
      000000C0H.3 SFRSYM    DATA     BIT       SMB1CN0_ACKRQ
      00000098H.4 SFRSYM    DATA     BIT       SCON0_REN
      000000F2H   SFRSYM    DATA     BYTE      P1MDIN
      000000F3H   SFRSYM    DATA     BYTE      P2MDIN
      000000C0H.4 SFRSYM    DATA     BIT       SMB0CN0_STO
LX51 LINKER/LOCATER V4.66.97.0                                                        01/21/2021  22:11:49  PAGE 90


      000000F4H   SFRSYM    DATA     BYTE      P3MDIN
      000000C0H.4 SFRSYM    DATA     BIT       SMB1CN0_STO
      000000B5H   SFRSYM    DATA     BYTE      SBRLH1
      000000F5H   SFRSYM    DATA     BYTE      P4MDIN
      000000D0H.3 SFRSYM    DATA     BIT       PSW_RS0
      000000D8H.7 SFRSYM    DATA     BIT       PCA0CN0_CF
      000000F8H.4 SFRSYM    DATA     BIT       SPI0CN0_RXOVRN
      000000D0H.4 SFRSYM    DATA     BIT       PSW_RS1
      000000B4H   SFRSYM    DATA     BYTE      SBRLL1
      000000E8H.7 SFRSYM    DATA     BIT       ADC0CN0_ADEN
      00000089H   SFRSYM    DATA     BYTE      TMOD
      00000088H   SFRSYM    DATA     BYTE      TCON
      000000D0H.0 SFRSYM    DATA     BIT       PSW_PARITY
      000000A8H.4 SFRSYM    DATA     BIT       IE_ES0
      0000009FH   SFRSYM    DATA     BYTE      CMP0MX
      000000A8H.1 SFRSYM    DATA     BIT       IE_ET0
      0000009EH   SFRSYM    DATA     BYTE      CMP1MX
      000000A8H.3 SFRSYM    DATA     BIT       IE_ET1
      000000D4H   SFRSYM    DATA     BYTE      P0SKIP
      000000C8H.1 SFRSYM    DATA     BIT       TMR2CN0_T2CSS
      000000A8H.5 SFRSYM    DATA     BIT       IE_ET2
      000000D5H   SFRSYM    DATA     BYTE      P1SKIP
      000000D6H   SFRSYM    DATA     BYTE      P2SKIP
      000000E8H   SFRSYM    DATA     BYTE      ADC0CN0
      000000A8H.0 SFRSYM    DATA     BIT       IE_EX0
      000000DFH   SFRSYM    DATA     BYTE      P3SKIP
      000000D8H.6 SFRSYM    DATA     BIT       PCA0CN0_CR
      000000A8H.2 SFRSYM    DATA     BIT       IE_EX1
      00000098H.7 SFRSYM    DATA     BIT       SCON0_SMODE
      000000A9H   SFRSYM    DATA     BYTE      CLKSEL
      000000F8H.0 SFRSYM    DATA     BIT       SPI0CN0_SPIEN
      000000F0H   SFRSYM    DATA     BYTE      B
      000000BEH   SFRSYM    DATA     BYTE      ADC0H
      000000E8H.6 SFRSYM    DATA     BIT       ADC0CN0_ADTM
      000000CAH   SFRSYM    DATA     WORD      TMR2RL
      000000BDH   SFRSYM    DATA     BYTE      ADC0L
      00000092H   SFRSYM    DATA     WORD      TMR3RL
      00000092H   SFRSYM    DATA     WORD      TMR4RL
      000000D8H   SFRSYM    DATA     BYTE      PCA0CN0
      000000E0H   SFRSYM    DATA     BYTE      ACC
      000000CAH   SFRSYM    DATA     WORD      TMR5RL
      000000FBH   SFRSYM    DATA     WORD      PCA0CP0
      000000E9H   SFRSYM    DATA     WORD      PCA0CP1
      000000EBH   SFRSYM    DATA     WORD      PCA0CP2
      000000EDH   SFRSYM    DATA     WORD      PCA0CP3
      0000008CH   SFRSYM    DATA     BYTE      TH0
      000000B8H.4 SFRSYM    DATA     BIT       IP_PS0
      000000FDH   SFRSYM    DATA     WORD      PCA0CP4
      0000008DH   SFRSYM    DATA     BYTE      TH1
      000000FAH   SFRSYM    DATA     BYTE      PCA0H
      000000B8H.1 SFRSYM    DATA     BIT       IP_PT0
      000000B8H.3 SFRSYM    DATA     BIT       IP_PT1
      000000C0H.2 SFRSYM    DATA     BIT       SMB0CN0_ARBLOST
      000000B8H.5 SFRSYM    DATA     BIT       IP_PT2
      0000008AH   SFRSYM    DATA     BYTE      TL0
      000000F8H.1 SFRSYM    DATA     BIT       SPI0CN0_TXBMT
      000000C0H.2 SFRSYM    DATA     BIT       SMB1CN0_ARBLOST
      000000D0H.5 SFRSYM    DATA     BIT       PSW_F0
      000000A8H.6 SFRSYM    DATA     BIT       IE_ESPI0
      0000008BH   SFRSYM    DATA     BYTE      TL1
      000000F9H   SFRSYM    DATA     BYTE      PCA0L
      000000C0H.0 SFRSYM    DATA     BIT       SMB0CN0_SI
LX51 LINKER/LOCATER V4.66.97.0                                                        01/21/2021  22:11:49  PAGE 91


      000000D0H.1 SFRSYM    DATA     BIT       PSW_F1
      00000080H.0 SFRSYM    DATA     BIT       P0_B0
      000000B8H.0 SFRSYM    DATA     BIT       IP_PX0
      000000C9H   SFRSYM    DATA     BYTE      REG01CN
      000000C0H.0 SFRSYM    DATA     BIT       SMB1CN0_SI
      00000090H.0 SFRSYM    DATA     BIT       P1_B0
      00000080H.1 SFRSYM    DATA     BIT       P0_B1
      000000B8H.2 SFRSYM    DATA     BIT       IP_PX1
      0000009BH   SFRSYM    DATA     BYTE      CMP0CN0
      00000088H.1 SFRSYM    DATA     BIT       TCON_IE0
      000000A0H.0 SFRSYM    DATA     BIT       P2_B0
      00000090H.1 SFRSYM    DATA     BIT       P1_B1
      00000080H.2 SFRSYM    DATA     BIT       P0_B2
      0000009AH   SFRSYM    DATA     BYTE      CMP1CN0
      00000088H.3 SFRSYM    DATA     BIT       TCON_IE1
      000000B0H.0 SFRSYM    DATA     BIT       P3_B0
      000000A0H.1 SFRSYM    DATA     BIT       P2_B1
      00000090H.2 SFRSYM    DATA     BIT       P1_B2
      00000080H.3 SFRSYM    DATA     BIT       P0_B3
      000000C0H   SFRSYM    DATA     BYTE      SMB0CN0
      000000B0H.1 SFRSYM    DATA     BIT       P3_B1
      000000A0H.2 SFRSYM    DATA     BIT       P2_B2
      00000090H.3 SFRSYM    DATA     BIT       P1_B3
      00000080H.4 SFRSYM    DATA     BIT       P0_B4
      000000C0H   SFRSYM    DATA     BYTE      SMB1CN0
      000000B0H.2 SFRSYM    DATA     BIT       P3_B2
      000000A0H.3 SFRSYM    DATA     BIT       P2_B3
      00000090H.4 SFRSYM    DATA     BIT       P1_B4
      00000080H.5 SFRSYM    DATA     BIT       P0_B5
      000000B0H.3 SFRSYM    DATA     BIT       P3_B3
      000000A0H.4 SFRSYM    DATA     BIT       P2_B4
      00000090H.5 SFRSYM    DATA     BIT       P1_B5
      00000080H.6 SFRSYM    DATA     BIT       P0_B6
      000000B0H.4 SFRSYM    DATA     BIT       P3_B4
      000000A0H.5 SFRSYM    DATA     BIT       P2_B5
      00000090H.6 SFRSYM    DATA     BIT       P1_B6
      00000080H.7 SFRSYM    DATA     BIT       P0_B7
      000000B0H.5 SFRSYM    DATA     BIT       P3_B5
      000000A0H.6 SFRSYM    DATA     BIT       P2_B6
      00000090H.7 SFRSYM    DATA     BIT       P1_B7
      000000B0H.6 SFRSYM    DATA     BIT       P3_B6
      000000A0H.7 SFRSYM    DATA     BIT       P2_B7
      000000B0H.7 SFRSYM    DATA     BIT       P3_B7
      00000083H   SFRSYM    DATA     BYTE      DPH
      000000C4H   SFRSYM    DATA     BYTE      ADC0GTH
      000000C8H.7 SFRSYM    DATA     BIT       TMR2CN0_TF2H
      000000C8H.3 SFRSYM    DATA     BIT       TMR2CN0_T2SPLIT
      000000D0H.6 SFRSYM    DATA     BIT       PSW_AC
      000000F8H   SFRSYM    DATA     BYTE      SPI0CN0
      000000B3H   SFRSYM    DATA     BYTE      HFO0CAL
      00000088H.5 SFRSYM    DATA     BIT       TCON_TF0
      00000098H.0 SFRSYM    DATA     BIT       SCON0_RI
      00000082H   SFRSYM    DATA     BYTE      DPL
      00000088H.7 SFRSYM    DATA     BIT       TCON_TF1
      00000099H   SFRSYM    DATA     BYTE      SBUF0
      00000087H   SFRSYM    DATA     BYTE      PCON0
      000000C3H   SFRSYM    DATA     BYTE      ADC0GTL
      000000C8H.6 SFRSYM    DATA     BIT       TMR2CN0_TF2L
      00000098H.1 SFRSYM    DATA     BIT       SCON0_TI
      000000E8H.0 SFRSYM    DATA     BIT       ADC0CN0_ADCM0
      000000D3H   SFRSYM    DATA     BYTE      SBUF1
      000000C6H   SFRSYM    DATA     BYTE      ADC0LTH
LX51 LINKER/LOCATER V4.66.97.0                                                        01/21/2021  22:11:49  PAGE 92


      00000088H.0 SFRSYM    DATA     BIT       TCON_IT0
      000000E8H.1 SFRSYM    DATA     BIT       ADC0CN0_ADCM1
      000000EFH   SFRSYM    DATA     BYTE      RSTSRC
      000000C8H.7 SFRSYM    DATA     BIT       TMR5CN0_TF5H
      000000C8H.3 SFRSYM    DATA     BIT       TMR5CN0_T5SPLIT
      00000088H.2 SFRSYM    DATA     BIT       TCON_IT1
      000000E8H.2 SFRSYM    DATA     BIT       ADC0CN0_ADCM2
      00000098H   SFRSYM    DATA     BYTE      SCON0
      000000E8H.3 SFRSYM    DATA     BIT       ADC0CN0_ADWINT
      000000B4H   SFRSYM    DATA     WORD      SBRL1
      000000E5H   SFRSYM    DATA     BYTE      SMOD1
      000000D2H   SFRSYM    DATA     BYTE      SCON1
      000000BAH   SFRSYM    DATA     BYTE      AMX0N
      000000E8H.4 SFRSYM    DATA     BIT       ADC0CN0_ADBUSY
      000000CEH   SFRSYM    DATA     BYTE      SMB0ADM
      000000C5H   SFRSYM    DATA     BYTE      ADC0LTL
      000000F8H.5 SFRSYM    DATA     BIT       SPI0CN0_MODF
      000000B8H.6 SFRSYM    DATA     BIT       IP_PSPI0
      000000CEH   SFRSYM    DATA     BYTE      SMB1ADM
      000000BBH   SFRSYM    DATA     BYTE      AMX0P
      000000C8H.6 SFRSYM    DATA     BIT       TMR5CN0_TF5L
      000000C8H   SFRSYM    DATA     BYTE      TMR2CN0
      00000091H   SFRSYM    DATA     BYTE      TMR3CN0
      00000091H   SFRSYM    DATA     BYTE      TMR4CN0
      000000C8H   SFRSYM    DATA     BYTE      TMR5CN0
      000000CFH   SFRSYM    DATA     BYTE      SMB0ADR
      00000088H.4 SFRSYM    DATA     BIT       TCON_TR0
      000000CFH   SFRSYM    DATA     BYTE      SMB1ADR
      000000C8H.4 SFRSYM    DATA     BIT       TMR2CN0_TF2CEN
      00000088H.6 SFRSYM    DATA     BIT       TCON_TR1
      000000C2H   SFRSYM    DATA     BYTE      SMB0DAT
      000000CDH   SFRSYM    DATA     BYTE      TMR2H
      000000A1H   SFRSYM    DATA     BYTE      SPI0CFG
      000000C2H   SFRSYM    DATA     BYTE      SMB1DAT
      00000095H   SFRSYM    DATA     BYTE      TMR3H
      00000095H   SFRSYM    DATA     BYTE      TMR4H
      000000CDH   SFRSYM    DATA     BYTE      TMR5H
      000000CCH   SFRSYM    DATA     BYTE      TMR2L
      000000F8H.7 SFRSYM    DATA     BIT       SPI0CN0_SPIF
      00000096H   SFRSYM    DATA     BYTE      USB0ADR
      00000094H   SFRSYM    DATA     BYTE      TMR3L
      000000A8H.7 SFRSYM    DATA     BIT       IE_EA
      00000094H   SFRSYM    DATA     BYTE      TMR4L
      00000097H   SFRSYM    DATA     BYTE      USB0DAT
      000000CCH   SFRSYM    DATA     BYTE      TMR5L
      000000B6H   SFRSYM    DATA     BYTE      FLSCL
      000000C8H.5 SFRSYM    DATA     BIT       TMR2CN0_TF2LEN
      000000F8H.6 SFRSYM    DATA     BIT       SPI0CN0_WCOL
      000000F8H.2 SFRSYM    DATA     BIT       SPI0CN0_NSSMD0
      000000D0H.7 SFRSYM    DATA     BIT       PSW_CY
      000000A3H   SFRSYM    DATA     BYTE      SPI0DAT
      000000F8H.3 SFRSYM    DATA     BIT       SPI0CN0_NSSMD1
      000000BDH   SFRSYM    DATA     WORD      ADC0
      000000B9H   SFRSYM    DATA     BYTE      SMBTC
      000000D0H   SFRSYM    DATA     BYTE      PSW
      000000C8H.5 SFRSYM    DATA     BIT       TMR5CN0_TF5LEN
      000000B7H   SFRSYM    DATA     BYTE      FLKEY
      01001F11H   SYMBOL    CONST    ---       langDesc
      01001F26H   SYMBOL    CONST    ---       prodDesc
      01001F15H   SYMBOL    CONST    ---       mfrDesc
      01001F3FH   SYMBOL    CONST    ---       serDesc
      01001F51H   SYMBOL    CONST    ---       myUsbStringTable_USEnglish
LX51 LINKER/LOCATER V4.66.97.0                                                        01/21/2021  22:11:49  PAGE 93



      ---         MODULE    ---      ---       IDLE
      01001E89H   PUBLIC    CODE     ---       idleGetRate
      01001D03H   PUBLIC    CODE     ---       idleTimerTick
      01001CC5H   PUBLIC    CODE     ---       _idleTimerSet
      01001DAEH   PUBLIC    CODE     ---       isIdleTimerExpired
      01001C07H   PUBLIC    CODE     ---       idleTimerStart
      0000000BH   SYMBOL    DATA     ---       idle

      01001C07H   BLOCK     CODE     ---       LVL=0
      01001C07H   LINE      CODE     ---       #19
      01001C07H   LINE      CODE     ---       #20
      01001C07H   LINE      CODE     ---       #21
      01001C12H   LINE      CODE     ---       #22
      01001C12H   LINE      CODE     ---       #23
      01001C1DH   LINE      CODE     ---       #24
      01001C1EH   LINE      CODE     ---       #26
      01001C1EH   LINE      CODE     ---       #27
      01001C24H   LINE      CODE     ---       #28
      01001C24H   LINE      CODE     ---       #29
      ---         BLOCKEND  ---      ---       LVL=0

      01001DAEH   BLOCK     CODE     ---       LVL=0
      01001DAEH   LINE      CODE     ---       #42
      01001DAEH   LINE      CODE     ---       #43
      01001DAEH   LINE      CODE     ---       #44
      01001DB4H   LINE      CODE     ---       #45
      01001DB4H   LINE      CODE     ---       #46
      01001DB7H   LINE      CODE     ---       #47
      01001DB9H   LINE      CODE     ---       #48
      01001DB9H   LINE      CODE     ---       #49
      01001DBAH   LINE      CODE     ---       #50
      ---         BLOCKEND  ---      ---       LVL=0

      01001CC5H   BLOCK     CODE     ---       LVL=0
      00000007H   SYMBOL    DATA     BYTE      rate
      01001CC5H   LINE      CODE     ---       #52
      01001CC5H   LINE      CODE     ---       #53
      01001CC5H   LINE      CODE     ---       #54
      01001CD1H   LINE      CODE     ---       #55
      01001CD1H   LINE      CODE     ---       #56
      01001CD4H   LINE      CODE     ---       #57
      01001CD6H   LINE      CODE     ---       #59
      01001CD6H   LINE      CODE     ---       #60
      01001CD8H   LINE      CODE     ---       #61
      01001CD8H   LINE      CODE     ---       #63
      ---         BLOCKEND  ---      ---       LVL=0

      01001D03H   BLOCK     CODE     ---       LVL=0
      01001D03H   LINE      CODE     ---       #66
      01001D03H   LINE      CODE     ---       #67
      01001D03H   LINE      CODE     ---       #68
      01001D0EH   LINE      CODE     ---       #69
      01001D0EH   LINE      CODE     ---       #70
      01001D16H   LINE      CODE     ---       #71
      01001D16H   LINE      CODE     ---       #72
      ---         BLOCKEND  ---      ---       LVL=0

      01001E89H   BLOCK     CODE     ---       LVL=0
      01001E89H   LINE      CODE     ---       #74
      01001E89H   LINE      CODE     ---       #75
      01001E89H   LINE      CODE     ---       #76
LX51 LINKER/LOCATER V4.66.97.0                                                        01/21/2021  22:11:49  PAGE 94


      01001E8BH   LINE      CODE     ---       #77
      ---         BLOCKEND  ---      ---       LVL=0

      ---         MODULE    ---      ---       MAIN
      02000113H   PUBLIC    XDATA    BYTE      usbDisplayUpdateNeeded
      0200010BH   PUBLIC    XDATA    ---       localDisplayUpdateData
      02000109H   PUBLIC    XDATA    ---       rndDispPhase
      02000108H   PUBLIC    XDATA    BYTE      localLampUpdateNeeded
      02000107H   PUBLIC    XDATA    BYTE      localDisplayUpdateWhich
      020000FFH   PUBLIC    XDATA    ---       rndDispFinal
      020000F7H   PUBLIC    XDATA    ---       rnd
      0000000FH   PUBLIC    DATA     WORD      lfsr_state
      020000F2H   PUBLIC    XDATA    ---       usbLampUpdateData
      020000F1H   PUBLIC    XDATA    BYTE      lamp_timer
      0000000EH   PUBLIC    DATA     BYTE      flag100
      020000F0H   PUBLIC    XDATA    BYTE      lamp_index
      020000C8H   PUBLIC    XDATA    ---       lamp_timers
      020000A0H   PUBLIC    XDATA    ---       lamp_states
      0200009FH   PUBLIC    XDATA    BYTE      localDisplayUpdateNeeded
      02000097H   PUBLIC    XDATA    ---       usbDisplayUpdateData
      02000096H   PUBLIC    XDATA    BYTE      usbLampUpdateNeeded
      02000095H   PUBLIC    XDATA    BYTE      usbDisplayUpdateWhich
      02000090H   PUBLIC    XDATA    ---       localLampUpdateData
      01001F70H   PUBLIC    CONST    ---       lamps
      01001644H   PUBLIC    CODE     ---       RunGroupEightBlinkMode
      01001B06H   PUBLIC    CODE     ---       EnterGroupEightBlinkMode
      01000A45H   PUBLIC    CODE     ---       _SetDisplay
      010016B1H   PUBLIC    CODE     ---       _SetLamps
      01001C43H   PUBLIC    CODE     ---       ClearDisplays
      01001C25H   PUBLIC    CODE     ---       ClearLamps
      010017CDH   PUBLIC    CODE     ---       lfsr
      01001E68H   PUBLIC    CODE     ---       TIMER2_ISR
      01001C7EH   PUBLIC    CODE     ---       _Timer2_Init
      01000046H   PUBLIC    CODE     ---       main
      01001E91H   PUBLIC    CODE     ---       SiLabs_Startup
      000000A2H   SFRSYM    DATA     BYTE      SPI0CKR
      00000080H   SFRSYM    DATA     BYTE      P0
      000000D0H.2 SFRSYM    DATA     BIT       PSW_OV
      000000B1H   SFRSYM    DATA     BYTE      XOSC0CN
      00000090H   SFRSYM    DATA     BYTE      P1
      000000A0H   SFRSYM    DATA     BYTE      P2
      000000B0H   SFRSYM    DATA     BYTE      P3
      000000BCH   SFRSYM    DATA     BYTE      ADC0CF
      000000C8H.0 SFRSYM    DATA     BIT       TMR2CN0_T2XCLK
      000000C7H   SFRSYM    DATA     BYTE      P4
      000000C0H.7 SFRSYM    DATA     BIT       SMB0CN0_MASTER
      000000F9H   SFRSYM    DATA     WORD      PCA0
      000000E6H   SFRSYM    DATA     BYTE      EIE1
      000000C0H.7 SFRSYM    DATA     BIT       SMB1CN0_MASTER
      000000C0H.1 SFRSYM    DATA     BIT       SMB0CN0_ACK
      000000D7H   SFRSYM    DATA     BYTE      USB0XCN
      000000E7H   SFRSYM    DATA     BYTE      EIE2
      000000C0H.1 SFRSYM    DATA     BIT       SMB1CN0_ACK
      0000008FH   SFRSYM    DATA     BYTE      PSCTL
      000000E4H   SFRSYM    DATA     BYTE      IT01CF
      000000C8H.0 SFRSYM    DATA     BIT       TMR5CN0_T5XCLK
      000000C0H.6 SFRSYM    DATA     BIT       SMB0CN0_TXMODE
      000000C0H.6 SFRSYM    DATA     BIT       SMB1CN0_TXMODE
      000000BFH   SFRSYM    DATA     BYTE      SFRPAGE
      000000A4H   SFRSYM    DATA     BYTE      P0MDOUT
      000000A5H   SFRSYM    DATA     BYTE      P1MDOUT
      000000E8H.5 SFRSYM    DATA     BIT       ADC0CN0_ADINT
LX51 LINKER/LOCATER V4.66.97.0                                                        01/21/2021  22:11:49  PAGE 95


      000000CBH   SFRSYM    DATA     BYTE      TMR2RLH
      000000A6H   SFRSYM    DATA     BYTE      P2MDOUT
      000000A8H   SFRSYM    DATA     BYTE      IE
      00000093H   SFRSYM    DATA     BYTE      TMR3RLH
      000000A7H   SFRSYM    DATA     BYTE      P3MDOUT
      00000093H   SFRSYM    DATA     BYTE      TMR4RLH
      000000AEH   SFRSYM    DATA     BYTE      P4MDOUT
      000000F6H   SFRSYM    DATA     BYTE      EIP1
      000000CBH   SFRSYM    DATA     BYTE      TMR5RLH
      000000F7H   SFRSYM    DATA     BYTE      EIP2
      00000098H.2 SFRSYM    DATA     BIT       SCON0_RB8
      000000CAH   SFRSYM    DATA     BYTE      TMR2RLL
      000000FCH   SFRSYM    DATA     BYTE      PCA0CPH0
      00000092H   SFRSYM    DATA     BYTE      TMR3RLL
      000000EAH   SFRSYM    DATA     BYTE      PCA0CPH1
      00000098H.3 SFRSYM    DATA     BIT       SCON0_TB8
      000000F0H.0 SFRSYM    DATA     BIT       B_B0
      00000082H   SFRSYM    DATA     WORD      DP
      00000092H   SFRSYM    DATA     BYTE      TMR4RLL
      000000ECH   SFRSYM    DATA     BYTE      PCA0CPH2
      000000F0H.1 SFRSYM    DATA     BIT       B_B1
      000000C3H   SFRSYM    DATA     WORD      ADC0GT
      000000CAH   SFRSYM    DATA     BYTE      TMR5RLL
      000000EEH   SFRSYM    DATA     BYTE      PCA0CPH3
      000000F0H.2 SFRSYM    DATA     BIT       B_B2
      000000FBH   SFRSYM    DATA     BYTE      PCA0CPL0
      000000FEH   SFRSYM    DATA     BYTE      PCA0CPH4
      00000085H   SFRSYM    DATA     BYTE      EMI0CF
      000000F0H.3 SFRSYM    DATA     BIT       B_B3
      000000D9H   SFRSYM    DATA     BYTE      PCA0MD
      000000DAH   SFRSYM    DATA     BYTE      PCA0CPM0
      000000E9H   SFRSYM    DATA     BYTE      PCA0CPL1
      000000F0H.4 SFRSYM    DATA     BIT       B_B4
      000000DBH   SFRSYM    DATA     BYTE      PCA0CPM1
      000000EBH   SFRSYM    DATA     BYTE      PCA0CPL2
      000000F0H.5 SFRSYM    DATA     BIT       B_B5
      000000DCH   SFRSYM    DATA     BYTE      PCA0CPM2
      000000EDH   SFRSYM    DATA     BYTE      PCA0CPL3
      000000B8H   SFRSYM    DATA     BYTE      IP
      000000F0H.6 SFRSYM    DATA     BIT       B_B6
      000000C5H   SFRSYM    DATA     WORD      ADC0LT
      000000DDH   SFRSYM    DATA     BYTE      PCA0CPM3
      000000FDH   SFRSYM    DATA     BYTE      PCA0CPL4
      00000098H.5 SFRSYM    DATA     BIT       SCON0_MCE
      000000F0H.7 SFRSYM    DATA     BIT       B_B7
      000000DEH   SFRSYM    DATA     BYTE      PCA0CPM4
      000000E1H   SFRSYM    DATA     BYTE      XBR0
      000000C1H   SFRSYM    DATA     BYTE      SMB0CF
      000000E2H   SFRSYM    DATA     BYTE      XBR1
      000000C1H   SFRSYM    DATA     BYTE      SMB1CF
      000000AFH   SFRSYM    DATA     BYTE      PFE0CN
      000000AAH   SFRSYM    DATA     BYTE      EMI0CN
      000000C0H.5 SFRSYM    DATA     BIT       SMB0CN0_STA
      000000E3H   SFRSYM    DATA     BYTE      XBR2
      000000C0H.5 SFRSYM    DATA     BIT       SMB1CN0_STA
      000000E0H.0 SFRSYM    DATA     BIT       ACC_ACC0
      000000D1H   SFRSYM    DATA     BYTE      REF0CN
      000000B2H   SFRSYM    DATA     BYTE      HFO0CN
      0000008EH   SFRSYM    DATA     BYTE      CKCON0
      000000E0H.1 SFRSYM    DATA     BIT       ACC_ACC1
      000000E4H   SFRSYM    DATA     BYTE      CKCON1
      000000C8H.2 SFRSYM    DATA     BIT       TMR2CN0_TR2
LX51 LINKER/LOCATER V4.66.97.0                                                        01/21/2021  22:11:49  PAGE 96


      000000E0H.2 SFRSYM    DATA     BIT       ACC_ACC2
      000000E0H.3 SFRSYM    DATA     BIT       ACC_ACC3
      00000081H   SFRSYM    DATA     BYTE      SP
      0000009DH   SFRSYM    DATA     BYTE      CMP0MD
      000000E0H.4 SFRSYM    DATA     BIT       ACC_ACC4
      00000086H   SFRSYM    DATA     BYTE      LFO0CN
      00000084H   SFRSYM    DATA     BYTE      EMI0TC
      0000009CH   SFRSYM    DATA     BYTE      CMP1MD
      000000D8H.0 SFRSYM    DATA     BIT       PCA0CN0_CCF0
      000000E0H.5 SFRSYM    DATA     BIT       ACC_ACC5
      000000D8H.1 SFRSYM    DATA     BIT       PCA0CN0_CCF1
      000000E0H.6 SFRSYM    DATA     BIT       ACC_ACC6
      000000CCH   SFRSYM    DATA     WORD      TMR2
      000000D8H.2 SFRSYM    DATA     BIT       PCA0CN0_CCF2
      000000E0H.7 SFRSYM    DATA     BIT       ACC_ACC7
      00000094H   SFRSYM    DATA     WORD      TMR3
      000000C8H.2 SFRSYM    DATA     BIT       TMR5CN0_TR5
      000000D8H.3 SFRSYM    DATA     BIT       PCA0CN0_CCF3
      00000094H   SFRSYM    DATA     WORD      TMR4
      000000ACH   SFRSYM    DATA     BYTE      SBCON1
      000000D8H.4 SFRSYM    DATA     BIT       PCA0CN0_CCF4
      000000CCH   SFRSYM    DATA     WORD      TMR5
      000000C0H.3 SFRSYM    DATA     BIT       SMB0CN0_ACKRQ
      000000FFH   SFRSYM    DATA     BYTE      VDM0CN
      000000F1H   SFRSYM    DATA     BYTE      P0MDIN
      000000C0H.3 SFRSYM    DATA     BIT       SMB1CN0_ACKRQ
      00000098H.4 SFRSYM    DATA     BIT       SCON0_REN
      000000F2H   SFRSYM    DATA     BYTE      P1MDIN
      000000F3H   SFRSYM    DATA     BYTE      P2MDIN
      000000C0H.4 SFRSYM    DATA     BIT       SMB0CN0_STO
      000000F4H   SFRSYM    DATA     BYTE      P3MDIN
      000000C0H.4 SFRSYM    DATA     BIT       SMB1CN0_STO
      000000B5H   SFRSYM    DATA     BYTE      SBRLH1
      000000F5H   SFRSYM    DATA     BYTE      P4MDIN
      000000D0H.3 SFRSYM    DATA     BIT       PSW_RS0
      000000D8H.7 SFRSYM    DATA     BIT       PCA0CN0_CF
      000000F8H.4 SFRSYM    DATA     BIT       SPI0CN0_RXOVRN
      000000D0H.4 SFRSYM    DATA     BIT       PSW_RS1
      000000B4H   SFRSYM    DATA     BYTE      SBRLL1
      000000E8H.7 SFRSYM    DATA     BIT       ADC0CN0_ADEN
      00000089H   SFRSYM    DATA     BYTE      TMOD
      00000088H   SFRSYM    DATA     BYTE      TCON
      000000D0H.0 SFRSYM    DATA     BIT       PSW_PARITY
      000000A8H.4 SFRSYM    DATA     BIT       IE_ES0
      0000009FH   SFRSYM    DATA     BYTE      CMP0MX
      000000A8H.1 SFRSYM    DATA     BIT       IE_ET0
      0000009EH   SFRSYM    DATA     BYTE      CMP1MX
      000000A8H.3 SFRSYM    DATA     BIT       IE_ET1
      000000D4H   SFRSYM    DATA     BYTE      P0SKIP
      000000C8H.1 SFRSYM    DATA     BIT       TMR2CN0_T2CSS
      000000A8H.5 SFRSYM    DATA     BIT       IE_ET2
      000000D5H   SFRSYM    DATA     BYTE      P1SKIP
      000000D6H   SFRSYM    DATA     BYTE      P2SKIP
      000000E8H   SFRSYM    DATA     BYTE      ADC0CN0
      000000A8H.0 SFRSYM    DATA     BIT       IE_EX0
      000000DFH   SFRSYM    DATA     BYTE      P3SKIP
      000000D8H.6 SFRSYM    DATA     BIT       PCA0CN0_CR
      000000A8H.2 SFRSYM    DATA     BIT       IE_EX1
      00000098H.7 SFRSYM    DATA     BIT       SCON0_SMODE
      000000A9H   SFRSYM    DATA     BYTE      CLKSEL
      000000F8H.0 SFRSYM    DATA     BIT       SPI0CN0_SPIEN
      000000F0H   SFRSYM    DATA     BYTE      B
LX51 LINKER/LOCATER V4.66.97.0                                                        01/21/2021  22:11:49  PAGE 97


      000000BEH   SFRSYM    DATA     BYTE      ADC0H
      000000E8H.6 SFRSYM    DATA     BIT       ADC0CN0_ADTM
      000000CAH   SFRSYM    DATA     WORD      TMR2RL
      000000BDH   SFRSYM    DATA     BYTE      ADC0L
      00000092H   SFRSYM    DATA     WORD      TMR3RL
      00000092H   SFRSYM    DATA     WORD      TMR4RL
      000000D8H   SFRSYM    DATA     BYTE      PCA0CN0
      000000E0H   SFRSYM    DATA     BYTE      ACC
      000000CAH   SFRSYM    DATA     WORD      TMR5RL
      000000FBH   SFRSYM    DATA     WORD      PCA0CP0
      000000E9H   SFRSYM    DATA     WORD      PCA0CP1
      000000EBH   SFRSYM    DATA     WORD      PCA0CP2
      000000EDH   SFRSYM    DATA     WORD      PCA0CP3
      0000008CH   SFRSYM    DATA     BYTE      TH0
      000000B8H.4 SFRSYM    DATA     BIT       IP_PS0
      000000FDH   SFRSYM    DATA     WORD      PCA0CP4
      0000008DH   SFRSYM    DATA     BYTE      TH1
      000000FAH   SFRSYM    DATA     BYTE      PCA0H
      000000B8H.1 SFRSYM    DATA     BIT       IP_PT0
      000000B8H.3 SFRSYM    DATA     BIT       IP_PT1
      000000C0H.2 SFRSYM    DATA     BIT       SMB0CN0_ARBLOST
      000000B8H.5 SFRSYM    DATA     BIT       IP_PT2
      0000008AH   SFRSYM    DATA     BYTE      TL0
      000000F8H.1 SFRSYM    DATA     BIT       SPI0CN0_TXBMT
      000000C0H.2 SFRSYM    DATA     BIT       SMB1CN0_ARBLOST
      000000D0H.5 SFRSYM    DATA     BIT       PSW_F0
      000000A8H.6 SFRSYM    DATA     BIT       IE_ESPI0
      0000008BH   SFRSYM    DATA     BYTE      TL1
      000000F9H   SFRSYM    DATA     BYTE      PCA0L
      000000C0H.0 SFRSYM    DATA     BIT       SMB0CN0_SI
      000000D0H.1 SFRSYM    DATA     BIT       PSW_F1
      00000080H.0 SFRSYM    DATA     BIT       P0_B0
      000000B8H.0 SFRSYM    DATA     BIT       IP_PX0
      000000C9H   SFRSYM    DATA     BYTE      REG01CN
      000000C0H.0 SFRSYM    DATA     BIT       SMB1CN0_SI
      00000090H.0 SFRSYM    DATA     BIT       P1_B0
      00000080H.1 SFRSYM    DATA     BIT       P0_B1
      000000B8H.2 SFRSYM    DATA     BIT       IP_PX1
      0000009BH   SFRSYM    DATA     BYTE      CMP0CN0
      00000088H.1 SFRSYM    DATA     BIT       TCON_IE0
      000000A0H.0 SFRSYM    DATA     BIT       P2_B0
      00000090H.1 SFRSYM    DATA     BIT       P1_B1
      00000080H.2 SFRSYM    DATA     BIT       P0_B2
      0000009AH   SFRSYM    DATA     BYTE      CMP1CN0
      000000B0H.5 SFRSYM    DATA     BIT       LED
      00000088H.3 SFRSYM    DATA     BIT       TCON_IE1
      000000B0H.0 SFRSYM    DATA     BIT       P3_B0
      000000A0H.1 SFRSYM    DATA     BIT       P2_B1
      00000090H.2 SFRSYM    DATA     BIT       P1_B2
      00000080H.3 SFRSYM    DATA     BIT       P0_B3
      000000C0H   SFRSYM    DATA     BYTE      SMB0CN0
      000000B0H.1 SFRSYM    DATA     BIT       P3_B1
      000000A0H.2 SFRSYM    DATA     BIT       P2_B2
      00000090H.3 SFRSYM    DATA     BIT       P1_B3
      00000080H.4 SFRSYM    DATA     BIT       P0_B4
      000000C0H   SFRSYM    DATA     BYTE      SMB1CN0
      000000B0H.2 SFRSYM    DATA     BIT       P3_B2
      000000A0H.3 SFRSYM    DATA     BIT       P2_B3
      00000090H.4 SFRSYM    DATA     BIT       P1_B4
      00000080H.5 SFRSYM    DATA     BIT       P0_B5
      000000B0H.3 SFRSYM    DATA     BIT       P3_B3
      000000A0H.4 SFRSYM    DATA     BIT       P2_B4
LX51 LINKER/LOCATER V4.66.97.0                                                        01/21/2021  22:11:49  PAGE 98


      00000090H.5 SFRSYM    DATA     BIT       P1_B5
      00000080H.6 SFRSYM    DATA     BIT       P0_B6
      000000B0H.4 SFRSYM    DATA     BIT       P3_B4
      000000A0H.5 SFRSYM    DATA     BIT       P2_B5
      00000090H.6 SFRSYM    DATA     BIT       P1_B6
      00000080H.7 SFRSYM    DATA     BIT       P0_B7
      000000B0H.5 SFRSYM    DATA     BIT       P3_B5
      000000A0H.6 SFRSYM    DATA     BIT       P2_B6
      00000090H.7 SFRSYM    DATA     BIT       P1_B7
      000000B0H.6 SFRSYM    DATA     BIT       P3_B6
      000000A0H.7 SFRSYM    DATA     BIT       P2_B7
      000000B0H.7 SFRSYM    DATA     BIT       P3_B7
      00000083H   SFRSYM    DATA     BYTE      DPH
      000000C4H   SFRSYM    DATA     BYTE      ADC0GTH
      000000C8H.7 SFRSYM    DATA     BIT       TMR2CN0_TF2H
      000000C8H.3 SFRSYM    DATA     BIT       TMR2CN0_T2SPLIT
      000000A0H.1 SFRSYM    DATA     BIT       DIR
      000000D0H.6 SFRSYM    DATA     BIT       PSW_AC
      000000F8H   SFRSYM    DATA     BYTE      SPI0CN0
      000000B3H   SFRSYM    DATA     BYTE      HFO0CAL
      00000088H.5 SFRSYM    DATA     BIT       TCON_TF0
      00000098H.0 SFRSYM    DATA     BIT       SCON0_RI
      00000082H   SFRSYM    DATA     BYTE      DPL
      00000088H.7 SFRSYM    DATA     BIT       TCON_TF1
      00000099H   SFRSYM    DATA     BYTE      SBUF0
      00000087H   SFRSYM    DATA     BYTE      PCON0
      000000C3H   SFRSYM    DATA     BYTE      ADC0GTL
      000000C8H.6 SFRSYM    DATA     BIT       TMR2CN0_TF2L
      00000098H.1 SFRSYM    DATA     BIT       SCON0_TI
      000000E8H.0 SFRSYM    DATA     BIT       ADC0CN0_ADCM0
      000000D3H   SFRSYM    DATA     BYTE      SBUF1
      000000C6H   SFRSYM    DATA     BYTE      ADC0LTH
      00000088H.0 SFRSYM    DATA     BIT       TCON_IT0
      000000E8H.1 SFRSYM    DATA     BIT       ADC0CN0_ADCM1
      000000EFH   SFRSYM    DATA     BYTE      RSTSRC
      000000A0H.2 SFRSYM    DATA     BIT       CS_n
      000000C8H.7 SFRSYM    DATA     BIT       TMR5CN0_TF5H
      000000C8H.3 SFRSYM    DATA     BIT       TMR5CN0_T5SPLIT
      00000088H.2 SFRSYM    DATA     BIT       TCON_IT1
      000000E8H.2 SFRSYM    DATA     BIT       ADC0CN0_ADCM2
      00000098H   SFRSYM    DATA     BYTE      SCON0
      000000E8H.3 SFRSYM    DATA     BIT       ADC0CN0_ADWINT
      000000B4H   SFRSYM    DATA     WORD      SBRL1
      000000E5H   SFRSYM    DATA     BYTE      SMOD1
      000000D2H   SFRSYM    DATA     BYTE      SCON1
      000000BAH   SFRSYM    DATA     BYTE      AMX0N
      000000E8H.4 SFRSYM    DATA     BIT       ADC0CN0_ADBUSY
      000000CEH   SFRSYM    DATA     BYTE      SMB0ADM
      000000C5H   SFRSYM    DATA     BYTE      ADC0LTL
      000000F8H.5 SFRSYM    DATA     BIT       SPI0CN0_MODF
      000000B8H.6 SFRSYM    DATA     BIT       IP_PSPI0
      000000CEH   SFRSYM    DATA     BYTE      SMB1ADM
      000000BBH   SFRSYM    DATA     BYTE      AMX0P
      000000C8H.6 SFRSYM    DATA     BIT       TMR5CN0_TF5L
      000000C8H   SFRSYM    DATA     BYTE      TMR2CN0
      00000091H   SFRSYM    DATA     BYTE      TMR3CN0
      00000091H   SFRSYM    DATA     BYTE      TMR4CN0
      000000C8H   SFRSYM    DATA     BYTE      TMR5CN0
      000000CFH   SFRSYM    DATA     BYTE      SMB0ADR
      00000088H.4 SFRSYM    DATA     BIT       TCON_TR0
      000000CFH   SFRSYM    DATA     BYTE      SMB1ADR
      000000C8H.4 SFRSYM    DATA     BIT       TMR2CN0_TF2CEN
LX51 LINKER/LOCATER V4.66.97.0                                                        01/21/2021  22:11:49  PAGE 99


      00000088H.6 SFRSYM    DATA     BIT       TCON_TR1
      000000C2H   SFRSYM    DATA     BYTE      SMB0DAT
      000000CDH   SFRSYM    DATA     BYTE      TMR2H
      000000A1H   SFRSYM    DATA     BYTE      SPI0CFG
      000000C2H   SFRSYM    DATA     BYTE      SMB1DAT
      00000095H   SFRSYM    DATA     BYTE      TMR3H
      00000095H   SFRSYM    DATA     BYTE      TMR4H
      000000CDH   SFRSYM    DATA     BYTE      TMR5H
      000000CCH   SFRSYM    DATA     BYTE      TMR2L
      000000F8H.7 SFRSYM    DATA     BIT       SPI0CN0_SPIF
      00000096H   SFRSYM    DATA     BYTE      USB0ADR
      00000094H   SFRSYM    DATA     BYTE      TMR3L
      000000A8H.7 SFRSYM    DATA     BIT       IE_EA
      00000094H   SFRSYM    DATA     BYTE      TMR4L
      00000097H   SFRSYM    DATA     BYTE      USB0DAT
      000000CCH   SFRSYM    DATA     BYTE      TMR5L
      000000B6H   SFRSYM    DATA     BYTE      FLSCL
      000000C8H.5 SFRSYM    DATA     BIT       TMR2CN0_TF2LEN
      000000F8H.6 SFRSYM    DATA     BIT       SPI0CN0_WCOL
      000000F8H.2 SFRSYM    DATA     BIT       SPI0CN0_NSSMD0
      000000D0H.7 SFRSYM    DATA     BIT       PSW_CY
      000000A3H   SFRSYM    DATA     BYTE      SPI0DAT
      000000F8H.3 SFRSYM    DATA     BIT       SPI0CN0_NSSMD1
      000000BDH   SFRSYM    DATA     WORD      ADC0
      000000B9H   SFRSYM    DATA     BYTE      SMBTC
      000000D0H   SFRSYM    DATA     BYTE      PSW
      000000C8H.5 SFRSYM    DATA     BIT       TMR5CN0_TF5LEN
      000000B7H   SFRSYM    DATA     BYTE      FLKEY

      01001E91H   BLOCK     CODE     ---       LVL=0
      01001E91H   LINE      CODE     ---       #106
      01001E91H   LINE      CODE     ---       #107
      01001E91H   LINE      CODE     ---       #109
      ---         BLOCKEND  ---      ---       LVL=0

      01000046H   BLOCK     CODE     ---       LVL=0
      01000046H   BLOCK     CODE     NEAR LAB  LVL=1
      00000007H   SYMBOL    DATA     BYTE      SFRPAGE_save
      00000036H   SYMBOL    DATA     BYTE      lamp
      00000037H   SYMBOL    DATA     BYTE      display
      00000038H   SYMBOL    DATA     BYTE      digit
      00000039H   SYMBOL    DATA     BYTE      led_timer
      0000003AH   SYMBOL    DATA     BYTE      newUsbState
      0000003BH   SYMBOL    DATA     BYTE      oldUsbState
      0000003CH   SYMBOL    DATA     WORD      delayCounter
      ---         BLOCKEND  ---      ---       LVL=1
      01000046H   LINE      CODE     ---       #116
      01000046H   LINE      CODE     ---       #117
      01000046H   LINE      CODE     ---       #120
      01000049H   LINE      CODE     ---       #121
      0100004BH   LINE      CODE     ---       #122
      0100004DH   LINE      CODE     ---       #125
      01000050H   LINE      CODE     ---       #128
      01000055H   LINE      CODE     ---       #129
      01000067H   LINE      CODE     ---       #132
      0100006AH   LINE      CODE     ---       #135
      0100006DH   LINE      CODE     ---       #138
      0100007BH   LINE      CODE     ---       #139
      01000088H   LINE      CODE     ---       #140
      01000095H   LINE      CODE     ---       #141
      01000099H   LINE      CODE     ---       #144
      010000A7H   LINE      CODE     ---       #145
LX51 LINKER/LOCATER V4.66.97.0                                                        01/21/2021  22:11:49  PAGE 100


      010000C1H   LINE      CODE     ---       #146
      010000C5H   LINE      CODE     ---       #149
      010000CCH   LINE      CODE     ---       #152
      010000CFH   LINE      CODE     ---       #155
      010000CFH   LINE      CODE     ---       #156
      010000CFH   LINE      CODE     ---       #157
      010000D1H   LINE      CODE     ---       #158
      010000D4H   LINE      CODE     ---       #159
      010000D6H   LINE      CODE     ---       #162
      010000DEH   LINE      CODE     ---       #163
      010000E1H   LINE      CODE     ---       #164
      010000EFH   LINE      CODE     ---       #165
      01000109H   LINE      CODE     ---       #166
      0100010DH   LINE      CODE     ---       #167
      01000112H   LINE      CODE     ---       #168
      01000112H   LINE      CODE     ---       #171
      0100011AH   LINE      CODE     ---       #172
      0100011DH   LINE      CODE     ---       #173
      01000125H   LINE      CODE     ---       #174
      01000133H   LINE      CODE     ---       #175
      0100014DH   LINE      CODE     ---       #176
      01000151H   LINE      CODE     ---       #177
      01000156H   LINE      CODE     ---       #178
      01000156H   LINE      CODE     ---       #180
      01000158H   LINE      CODE     ---       #181
      0100015BH   LINE      CODE     ---       #182
      0100015DH   LINE      CODE     ---       #184
      01000163H   LINE      CODE     ---       #185
      01000166H   LINE      CODE     ---       #186
      01000166H   LINE      CODE     ---       #188
      0100016CH   LINE      CODE     ---       #189
      0100017AH   LINE      CODE     ---       #190
      0100017AH   LINE      CODE     ---       #193
      01000181H   LINE      CODE     ---       #194
      01000184H   LINE      CODE     ---       #197
      01000189H   LINE      CODE     ---       #199
      0100018EH   LINE      CODE     ---       #201
      0100019BH   LINE      CODE     ---       #202
      0100019DH   LINE      CODE     ---       #203
      010001AAH   LINE      CODE     ---       #204
      010001ACH   LINE      CODE     ---       #205
      010001B9H   LINE      CODE     ---       #206
      010001BBH   LINE      CODE     ---       #207
      010001C8H   LINE      CODE     ---       #208
      010001CAH   LINE      CODE     ---       #209
      010001CAH   LINE      CODE     ---       #212
      010001D0H   LINE      CODE     ---       #213
      010001D0H   LINE      CODE     ---       #214
      010001D0H   LINE      CODE     ---       #215
      010001D0H   LINE      CODE     ---       #216
      010001D0H   LINE      CODE     ---       #217
      010001D2H   LINE      CODE     ---       #219
      010001DDH   LINE      CODE     ---       #220
      010001DFH   LINE      CODE     ---       #221
      010001E1H   LINE      CODE     ---       #222
      010001E3H   LINE      CODE     ---       #223
      010001E3H   LINE      CODE     ---       #226
      010001EFH   LINE      CODE     ---       #227
      010001F2H   LINE      CODE     ---       #228
      010001F5H   LINE      CODE     ---       #229
      010001F8H   LINE      CODE     ---       #230
      010001F8H   LINE      CODE     ---       #231
LX51 LINKER/LOCATER V4.66.97.0                                                        01/21/2021  22:11:49  PAGE 101


      010001F8H   LINE      CODE     ---       #233
      01000201H   LINE      CODE     ---       #235
      01000204H   LINE      CODE     ---       #238
      01000212H   LINE      CODE     ---       #239
      0100021FH   LINE      CODE     ---       #240
      01000223H   LINE      CODE     ---       #241
      01000231H   LINE      CODE     ---       #242
      0100023FH   LINE      CODE     ---       #244
      01000274H   LINE      CODE     ---       #245
      01000274H   LINE      CODE     ---       #246
      01000278H   LINE      CODE     ---       #249
      0100027BH   LINE      CODE     ---       #252
      0100028CH   LINE      CODE     ---       #255
      010002A0H   LINE      CODE     ---       #256
      010002ADH   LINE      CODE     ---       #257
      010002ADH   LINE      CODE     ---       #258
      010002D0H   LINE      CODE     ---       #259
      010002F4H   LINE      CODE     ---       #260
      010002F8H   LINE      CODE     ---       #261
      010002F8H   LINE      CODE     ---       #264
      0100030BH   LINE      CODE     ---       #265
      01000318H   LINE      CODE     ---       #266
      01000318H   LINE      CODE     ---       #267
      0100033BH   LINE      CODE     ---       #268
      0100035FH   LINE      CODE     ---       #269
      01000363H   LINE      CODE     ---       #270
      01000363H   LINE      CODE     ---       #272
      01000371H   LINE      CODE     ---       #273
      010003CCH   LINE      CODE     ---       #278
      010003D7H   LINE      CODE     ---       #279
      010003DBH   LINE      CODE     ---       #281
      010003EFH   LINE      CODE     ---       #282
      01000408H   LINE      CODE     ---       #283
      01000419H   LINE      CODE     ---       #284
      01000419H   LINE      CODE     ---       #285
      0100041EH   LINE      CODE     ---       #286
      0100041EH   LINE      CODE     ---       #289
      01000429H   LINE      CODE     ---       #290
      0100042BH   LINE      CODE     ---       #291
      0100042BH   LINE      CODE     ---       #293
      0100042BH   LINE      CODE     ---       #294
      ---         BLOCKEND  ---      ---       LVL=0

      01001C7EH   BLOCK     CODE     ---       LVL=0
      00000006H   SYMBOL    DATA     INT       counts
      01001C7EH   LINE      CODE     ---       #298
      01001C7EH   LINE      CODE     ---       #299
      01001C7EH   LINE      CODE     ---       #300
      01001C81H   LINE      CODE     ---       #302
      01001C84H   LINE      CODE     ---       #304
      01001C8DH   LINE      CODE     ---       #305
      01001C93H   LINE      CODE     ---       #306
      01001C95H   LINE      CODE     ---       #307
      01001C97H   LINE      CODE     ---       #308
      ---         BLOCKEND  ---      ---       LVL=0

      01001E68H   BLOCK     CODE     ---       LVL=0
      01001E68H   LINE      CODE     ---       #311
      01001E68H   LINE      CODE     ---       #313
      01001E6AH   LINE      CODE     ---       #314
      01001E6DH   LINE      CODE     ---       #315
      ---         BLOCKEND  ---      ---       LVL=0
LX51 LINKER/LOCATER V4.66.97.0                                                        01/21/2021  22:11:49  PAGE 102



      010017CDH   BLOCK     CODE     ---       LVL=0
      010017CDH   BLOCK     CODE     NEAR LAB  LVL=1
      00000006H   SYMBOL    DATA     WORD      newbit
      ---         BLOCKEND  ---      ---       LVL=1
      010017CDH   LINE      CODE     ---       #318
      010017CDH   LINE      CODE     ---       #319
      010017CDH   LINE      CODE     ---       #322
      01001807H   LINE      CODE     ---       #323
      0100181EH   LINE      CODE     ---       #325
      01001820H   LINE      CODE     ---       #326
      ---         BLOCKEND  ---      ---       LVL=0

      01001C25H   BLOCK     CODE     ---       LVL=0
      01001C25H   BLOCK     CODE     NEAR LAB  LVL=1
      00000007H   SYMBOL    DATA     BYTE      i
      0000003EH   SYMBOL    DATA     ---       d
      ---         BLOCKEND  ---      ---       LVL=1
      01001C25H   LINE      CODE     ---       #329
      01001C25H   LINE      CODE     ---       #330
      01001C25H   LINE      CODE     ---       #334
      01001C31H   LINE      CODE     ---       #335
      01001C37H   LINE      CODE     ---       #336
      01001C3AH   LINE      CODE     ---       #337
      ---         BLOCKEND  ---      ---       LVL=0

      01001C43H   BLOCK     CODE     ---       LVL=0
      01001C43H   BLOCK     CODE     NEAR LAB  LVL=1
      0000003EH   SYMBOL    DATA     BYTE      i
      ---         BLOCKEND  ---      ---       LVL=1
      01001C43H   LINE      CODE     ---       #341
      01001C43H   LINE      CODE     ---       #342
      01001C43H   LINE      CODE     ---       #345
      01001C51H   LINE      CODE     ---       #346
      01001C5CH   LINE      CODE     ---       #347
      01001C60H   LINE      CODE     ---       #348
      ---         BLOCKEND  ---      ---       LVL=0

      010016ABH   BLOCK     CODE     VOID      LVL=0
      ---         BLOCKEND  ---      ---       LVL=0

      010016B1H   BLOCK     CODE     ---       LVL=0
      00000001H   SYMBOL    DATA     ---       state
      00000007H   SYMBOL    DATA     BYTE      SFRPAGE_save
      010016B1H   BLOCK     CODE     NEAR LAB  LVL=1
      00000007H   SYMBOL    DATA     BYTE      SFRPAGE_save
      ---         BLOCKEND  ---      ---       LVL=1
      010016B1H   LINE      CODE     ---       #351
      010016B1H   LINE      CODE     ---       #352
      010016B1H   LINE      CODE     ---       #356
      010016B3H   LINE      CODE     ---       #357
      010016B6H   LINE      CODE     ---       #358
      010016B8H   LINE      CODE     ---       #361
      010016BAH   LINE      CODE     ---       #362
      010016BCH   LINE      CODE     ---       #364
      010016BFH   LINE      CODE     ---       #365
      010016C5H   LINE      CODE     ---       #366
      010016C7H   LINE      CODE     ---       #367
      010016C9H   LINE      CODE     ---       #369
      010016CCH   LINE      CODE     ---       #370
      010016D5H   LINE      CODE     ---       #371
      010016D7H   LINE      CODE     ---       #372
LX51 LINKER/LOCATER V4.66.97.0                                                        01/21/2021  22:11:49  PAGE 103


      010016D9H   LINE      CODE     ---       #374
      010016DCH   LINE      CODE     ---       #375
      010016E5H   LINE      CODE     ---       #376
      010016E7H   LINE      CODE     ---       #377
      010016E9H   LINE      CODE     ---       #379
      010016ECH   LINE      CODE     ---       #380
      010016F5H   LINE      CODE     ---       #381
      010016F7H   LINE      CODE     ---       #382
      010016F9H   LINE      CODE     ---       #385
      010016FCH   LINE      CODE     ---       #386
      01001705H   LINE      CODE     ---       #387
      01001707H   LINE      CODE     ---       #388
      01001709H   LINE      CODE     ---       #391
      0100170BH   LINE      CODE     ---       #392
      0100170EH   LINE      CODE     ---       #393
      01001710H   LINE      CODE     ---       #394
      ---         BLOCKEND  ---      ---       LVL=0

      01000A45H   BLOCK     CODE     ---       LVL=0
      00000007H   SYMBOL    DATA     BYTE      which
      00000001H   SYMBOL    DATA     ---       text
      01000A45H   BLOCK     CODE     NEAR LAB  LVL=1
      0000003FH   SYMBOL    DATA     BYTE      SFRPAGE_save
      00000040H   SYMBOL    DATA     BYTE      base
      ---         BLOCKEND  ---      ---       LVL=1
      01000A45H   LINE      CODE     ---       #397
      01000A45H   LINE      CODE     ---       #398
      01000A45H   LINE      CODE     ---       #403
      01000A48H   LINE      CODE     ---       #404
      01000A4BH   LINE      CODE     ---       #405
      01000A4EH   LINE      CODE     ---       #408
      01000A50H   LINE      CODE     ---       #409
      01000A52H   LINE      CODE     ---       #411
      01000A80H   LINE      CODE     ---       #412
      01000A85H   LINE      CODE     ---       #413
      01000A8AH   LINE      CODE     ---       #414
      01000A8FH   LINE      CODE     ---       #415
      01000A94H   LINE      CODE     ---       #416
      01000A99H   LINE      CODE     ---       #417
      01000A9EH   LINE      CODE     ---       #418
      01000AA3H   LINE      CODE     ---       #419
      01000AA8H   LINE      CODE     ---       #420
      01000AADH   LINE      CODE     ---       #421
      01000AB0H   LINE      CODE     ---       #422
      01000AB0H   LINE      CODE     ---       #423
      01000AB0H   LINE      CODE     ---       #425
      01000AB6H   LINE      CODE     ---       #426
      01000ABBH   LINE      CODE     ---       #427
      01000ABDH   LINE      CODE     ---       #428
      01000ABFH   LINE      CODE     ---       #429
      01000AC5H   LINE      CODE     ---       #430
      01000ACDH   LINE      CODE     ---       #431
      01000ACFH   LINE      CODE     ---       #432
      01000AD1H   LINE      CODE     ---       #433
      01000AD7H   LINE      CODE     ---       #434
      01000ADFH   LINE      CODE     ---       #435
      01000AE1H   LINE      CODE     ---       #436
      01000AE3H   LINE      CODE     ---       #437
      01000AE6H   LINE      CODE     ---       #438
      01000AEEH   LINE      CODE     ---       #439
      01000AF0H   LINE      CODE     ---       #440
      01000AF2H   LINE      CODE     ---       #442
LX51 LINKER/LOCATER V4.66.97.0                                                        01/21/2021  22:11:49  PAGE 104


      01000AF8H   LINE      CODE     ---       #444
      01000AFCH   LINE      CODE     ---       #445
      01000B04H   LINE      CODE     ---       #446
      01000B06H   LINE      CODE     ---       #447
      01000B08H   LINE      CODE     ---       #448
      01000B0EH   LINE      CODE     ---       #449
      01000B16H   LINE      CODE     ---       #450
      01000B18H   LINE      CODE     ---       #451
      01000B1AH   LINE      CODE     ---       #452
      01000B20H   LINE      CODE     ---       #453
      01000B28H   LINE      CODE     ---       #454
      01000B2AH   LINE      CODE     ---       #455
      01000B2CH   LINE      CODE     ---       #456
      01000B2FH   LINE      CODE     ---       #457
      01000B37H   LINE      CODE     ---       #458
      01000B39H   LINE      CODE     ---       #459
      01000B3BH   LINE      CODE     ---       #461
      01000B3EH   LINE      CODE     ---       #462
      01000B41H   LINE      CODE     ---       #463
      01000B44H   LINE      CODE     ---       #464
      ---         BLOCKEND  ---      ---       LVL=0
      00000007H   SYMBOL    DATA     BYTE      i
      00000003H   SYMBOL    DATA     BYTE      lamp
      00000002H   SYMBOL    DATA     BYTE      r
      00000007H   SYMBOL    DATA     BYTE      t

      01001B06H   BLOCK     CODE     ---       LVL=0
      01001B06H   BLOCK     CODE     NEAR LAB  LVL=1
      00000007H   SYMBOL    DATA     BYTE      i
      ---         BLOCKEND  ---      ---       LVL=1
      01001B06H   LINE      CODE     ---       #503
      01001B06H   LINE      CODE     ---       #504
      01001B06H   LINE      CODE     ---       #507
      01001B12H   LINE      CODE     ---       #508
      01001B1EH   LINE      CODE     ---       #509
      01001B2AH   LINE      CODE     ---       #510
      01001B2DH   LINE      CODE     ---       #512
      01001B32H   LINE      CODE     ---       #513
      01001B36H   LINE      CODE     ---       #514
      ---         BLOCKEND  ---      ---       LVL=0

      01001644H   BLOCK     CODE     ---       LVL=0
      01001644H   BLOCK     CODE     NEAR LAB  LVL=1
      00000007H   SYMBOL    DATA     BYTE      i
      ---         BLOCKEND  ---      ---       LVL=1
      01001644H   LINE      CODE     ---       #517
      01001644H   LINE      CODE     ---       #518
      01001644H   LINE      CODE     ---       #521
      0100164AH   LINE      CODE     ---       #522
      01001655H   LINE      CODE     ---       #523
      01001661H   LINE      CODE     ---       #524
      01001665H   LINE      CODE     ---       #525
      01001677H   LINE      CODE     ---       #526
      01001677H   LINE      CODE     ---       #527
      01001677H   LINE      CODE     ---       #528
      01001679H   LINE      CODE     ---       #529
      01001686H   LINE      CODE     ---       #530
      01001693H   LINE      CODE     ---       #531
      01001693H   LINE      CODE     ---       #532
      01001693H   LINE      CODE     ---       #533
      01001696H   LINE      CODE     ---       #534
      0100169EH   LINE      CODE     ---       #535
LX51 LINKER/LOCATER V4.66.97.0                                                        01/21/2021  22:11:49  PAGE 105


      0100169EH   LINE      CODE     ---       #536
      010016A4H   LINE      CODE     ---       #537
      010016A9H   LINE      CODE     ---       #538
      010016AAH   LINE      CODE     ---       #539
      010016AAH   LINE      CODE     ---       #540
      ---         BLOCKEND  ---      ---       LVL=0

      ---         MODULE    ---      ---       ?C_INIT
      0100141AH   PUBLIC    CODE     ---       ?C_START

      ---         MODULE    ---      ---       ?C?CLDPTR
      0100042EH   PUBLIC    CODE     ---       ?C?CLDPTR

      ---         MODULE    ---      ---       ?C?CLDOPTR
      01000447H   PUBLIC    CODE     ---       ?C?CLDOPTR

      ---         MODULE    ---      ---       ?C?UIDIV
      01000474H   PUBLIC    CODE     ---       ?C?UIDIV

      ---         MODULE    ---      ---       ?C?IILDX
      010004C9H   PUBLIC    CODE     ---       ?C?IILDX

      ---         MODULE    ---      ---       ?C?ILDOPTR
      010004DFH   PUBLIC    CODE     ---       ?C?ILDOPTR

      ---         MODULE    ---      ---       ?C?PLDPTR
      01000517H   PUBLIC    CODE     ---       ?C?PLDPTR

      ---         MODULE    ---      ---       ?C?PLDOPTR
      01000537H   PUBLIC    CODE     ---       ?C?PLDOPTR

      ---         MODULE    ---      ---       ?C?PLDIDATA
      01000567H   PUBLIC    CODE     ---       ?C?PLDIDATA

      ---         MODULE    ---      ---       ?C?PLDXDATA
      01000570H   PUBLIC    CODE     ---       ?C?PLDXDATA

      ---         MODULE    ---      ---       ?C?PLDPDATA
      01000579H   PUBLIC    CODE     ---       ?C?PLDPDATA

      ---         MODULE    ---      ---       ?C?PLDCODE
      01000582H   PUBLIC    CODE     ---       ?C?PLDCODE

Program Size: data=97.4 xdata=276 const=304 code=7826
LX51 RUN COMPLETE.  0 WARNING(S),  0 ERROR(S)
